
static/HOG:     file format elf64-x86-64


Disassembly of section .init:

000000000040fcd0 <_init>:
  40fcd0:	48 83 ec 08          	sub    $0x8,%rsp
  40fcd4:	48 8d 05 15 06 00 00 	lea    0x615(%rip),%rax        # 4102f0 <__gmon_start__>
  40fcdb:	48 85 c0             	test   %rax,%rax
  40fcde:	74 05                	je     40fce5 <_init+0x15>
  40fce0:	e8 0b 06 00 00       	callq  4102f0 <__gmon_start__>
  40fce5:	48 83 c4 08          	add    $0x8,%rsp
  40fce9:	c3                   	retq   

Disassembly of section .plt:

000000000040fcf0 <__cxa_begin_catch@plt-0x10>:
  40fcf0:	ff 35 12 93 22 00    	pushq  0x229312(%rip)        # 639008 <_GLOBAL_OFFSET_TABLE_+0x8>
  40fcf6:	ff 25 14 93 22 00    	jmpq   *0x229314(%rip)        # 639010 <_GLOBAL_OFFSET_TABLE_+0x10>
  40fcfc:	0f 1f 40 00          	nopl   0x0(%rax)

000000000040fd00 <__cxa_begin_catch@plt>:
  40fd00:	ff 25 12 93 22 00    	jmpq   *0x229312(%rip)        # 639018 <_GLOBAL_OFFSET_TABLE_+0x18>
  40fd06:	68 00 00 00 00       	pushq  $0x0
  40fd0b:	e9 e0 ff ff ff       	jmpq   40fcf0 <_init+0x20>

000000000040fd10 <printf@plt>:
  40fd10:	ff 25 0a 93 22 00    	jmpq   *0x22930a(%rip)        # 639020 <_GLOBAL_OFFSET_TABLE_+0x20>
  40fd16:	68 01 00 00 00       	pushq  $0x1
  40fd1b:	e9 d0 ff ff ff       	jmpq   40fcf0 <_init+0x20>

000000000040fd20 <_ZN2cv15NAryMatIteratorppEv@plt>:
  40fd20:	ff 25 02 93 22 00    	jmpq   *0x229302(%rip)        # 639028 <_GLOBAL_OFFSET_TABLE_+0x28>
  40fd26:	68 02 00 00 00       	pushq  $0x2
  40fd2b:	e9 c0 ff ff ff       	jmpq   40fcf0 <_init+0x20>

000000000040fd30 <_ZNSsC1ERKSs@plt>:
  40fd30:	ff 25 fa 92 22 00    	jmpq   *0x2292fa(%rip)        # 639030 <_GLOBAL_OFFSET_TABLE_+0x30>
  40fd36:	68 03 00 00 00       	pushq  $0x3
  40fd3b:	e9 b0 ff ff ff       	jmpq   40fcf0 <_init+0x20>

000000000040fd40 <_ZN2cv3Mat8copySizeERKS0_@plt>:
  40fd40:	ff 25 f2 92 22 00    	jmpq   *0x2292f2(%rip)        # 639038 <_GLOBAL_OFFSET_TABLE_+0x38>
  40fd46:	68 04 00 00 00       	pushq  $0x4
  40fd4b:	e9 a0 ff ff ff       	jmpq   40fcf0 <_init+0x20>

000000000040fd50 <_ZSt17__throw_bad_allocv@plt>:
  40fd50:	ff 25 ea 92 22 00    	jmpq   *0x2292ea(%rip)        # 639040 <_GLOBAL_OFFSET_TABLE_+0x40>
  40fd56:	68 05 00 00 00       	pushq  $0x5
  40fd5b:	e9 90 ff ff ff       	jmpq   40fcf0 <_init+0x20>

000000000040fd60 <_ZNSsC1Ev@plt>:
  40fd60:	ff 25 e2 92 22 00    	jmpq   *0x2292e2(%rip)        # 639048 <_GLOBAL_OFFSET_TABLE_+0x48>
  40fd66:	68 06 00 00 00       	pushq  $0x6
  40fd6b:	e9 80 ff ff ff       	jmpq   40fcf0 <_init+0x20>

000000000040fd70 <_Znwm@plt>:
  40fd70:	ff 25 da 92 22 00    	jmpq   *0x2292da(%rip)        # 639050 <_GLOBAL_OFFSET_TABLE_+0x50>
  40fd76:	68 07 00 00 00       	pushq  $0x7
  40fd7b:	e9 70 ff ff ff       	jmpq   40fcf0 <_init+0x20>

000000000040fd80 <_ZN2cv9rectangleERNS_3MatENS_6Point_IiEES3_RKNS_7Scalar_IdEEiii@plt>:
  40fd80:	ff 25 d2 92 22 00    	jmpq   *0x2292d2(%rip)        # 639058 <_GLOBAL_OFFSET_TABLE_+0x58>
  40fd86:	68 08 00 00 00       	pushq  $0x8
  40fd8b:	e9 60 ff ff ff       	jmpq   40fcf0 <_init+0x20>

000000000040fd90 <_ZN2cv3MatC2ERKS0_RKNS_5RangeES5_@plt>:
  40fd90:	ff 25 ca 92 22 00    	jmpq   *0x2292ca(%rip)        # 639060 <_GLOBAL_OFFSET_TABLE_+0x60>
  40fd96:	68 09 00 00 00       	pushq  $0x9
  40fd9b:	e9 50 ff ff ff       	jmpq   40fcf0 <_init+0x20>

000000000040fda0 <memmove@plt>:
  40fda0:	ff 25 c2 92 22 00    	jmpq   *0x2292c2(%rip)        # 639068 <_GLOBAL_OFFSET_TABLE_+0x68>
  40fda6:	68 0a 00 00 00       	pushq  $0xa
  40fdab:	e9 40 ff ff ff       	jmpq   40fcf0 <_init+0x20>

000000000040fdb0 <__assert_fail@plt>:
  40fdb0:	ff 25 ba 92 22 00    	jmpq   *0x2292ba(%rip)        # 639070 <_GLOBAL_OFFSET_TABLE_+0x70>
  40fdb6:	68 0b 00 00 00       	pushq  $0xb
  40fdbb:	e9 30 ff ff ff       	jmpq   40fcf0 <_init+0x20>

000000000040fdc0 <_ZN2cv11FileStorageD1Ev@plt>:
  40fdc0:	ff 25 b2 92 22 00    	jmpq   *0x2292b2(%rip)        # 639078 <_GLOBAL_OFFSET_TABLE_+0x78>
  40fdc6:	68 0c 00 00 00       	pushq  $0xc
  40fdcb:	e9 20 ff ff ff       	jmpq   40fcf0 <_init+0x20>

000000000040fdd0 <_ZN2cv11FileStorage20getDefaultObjectNameERKSs@plt>:
  40fdd0:	ff 25 aa 92 22 00    	jmpq   *0x2292aa(%rip)        # 639080 <_GLOBAL_OFFSET_TABLE_+0x80>
  40fdd6:	68 0d 00 00 00       	pushq  $0xd
  40fddb:	e9 10 ff ff ff       	jmpq   40fcf0 <_init+0x20>

000000000040fde0 <_ZN2cv5writeERNS_11FileStorageERKSsd@plt>:
  40fde0:	ff 25 a2 92 22 00    	jmpq   *0x2292a2(%rip)        # 639088 <_GLOBAL_OFFSET_TABLE_+0x88>
  40fde6:	68 0e 00 00 00       	pushq  $0xe
  40fdeb:	e9 00 ff ff ff       	jmpq   40fcf0 <_init+0x20>

000000000040fdf0 <_ZN2cv16getTickFrequencyEv@plt>:
  40fdf0:	ff 25 9a 92 22 00    	jmpq   *0x22929a(%rip)        # 639090 <_GLOBAL_OFFSET_TABLE_+0x90>
  40fdf6:	68 0f 00 00 00       	pushq  $0xf
  40fdfb:	e9 f0 fe ff ff       	jmpq   40fcf0 <_init+0x20>

000000000040fe00 <_ZN2cv12_OutputArrayC1ERNS_3MatE@plt>:
  40fe00:	ff 25 92 92 22 00    	jmpq   *0x229292(%rip)        # 639098 <_GLOBAL_OFFSET_TABLE_+0x98>
  40fe06:	68 10 00 00 00       	pushq  $0x10
  40fe0b:	e9 e0 fe ff ff       	jmpq   40fcf0 <_init+0x20>

000000000040fe10 <__stack_chk_fail@plt>:
  40fe10:	ff 25 8a 92 22 00    	jmpq   *0x22928a(%rip)        # 6390a0 <_GLOBAL_OFFSET_TABLE_+0xa0>
  40fe16:	68 11 00 00 00       	pushq  $0x11
  40fe1b:	e9 d0 fe ff ff       	jmpq   40fcf0 <_init+0x20>

000000000040fe20 <_ZNK2cv8FileNodeixEPKc@plt>:
  40fe20:	ff 25 82 92 22 00    	jmpq   *0x229282(%rip)        # 6390a8 <_GLOBAL_OFFSET_TABLE_+0xa8>
  40fe26:	68 12 00 00 00       	pushq  $0x12
  40fe2b:	e9 c0 fe ff ff       	jmpq   40fcf0 <_init+0x20>

000000000040fe30 <_ZN2cv9ExceptionC1Ev@plt>:
  40fe30:	ff 25 7a 92 22 00    	jmpq   *0x22927a(%rip)        # 6390b0 <_GLOBAL_OFFSET_TABLE_+0xb0>
  40fe36:	68 13 00 00 00       	pushq  $0x13
  40fe3b:	e9 b0 fe ff ff       	jmpq   40fcf0 <_init+0x20>

000000000040fe40 <_ZdaPv@plt>:
  40fe40:	ff 25 72 92 22 00    	jmpq   *0x229272(%rip)        # 6390b8 <_GLOBAL_OFFSET_TABLE_+0xb8>
  40fe46:	68 14 00 00 00       	pushq  $0x14
  40fe4b:	e9 a0 fe ff ff       	jmpq   40fcf0 <_init+0x20>

000000000040fe50 <__cxa_allocate_exception@plt>:
  40fe50:	ff 25 6a 92 22 00    	jmpq   *0x22926a(%rip)        # 6390c0 <_GLOBAL_OFFSET_TABLE_+0xc0>
  40fe56:	68 15 00 00 00       	pushq  $0x15
  40fe5b:	e9 90 fe ff ff       	jmpq   40fcf0 <_init+0x20>

000000000040fe60 <strlen@plt>:
  40fe60:	ff 25 62 92 22 00    	jmpq   *0x229262(%rip)        # 6390c8 <_GLOBAL_OFFSET_TABLE_+0xc8>
  40fe66:	68 16 00 00 00       	pushq  $0x16
  40fe6b:	e9 80 fe ff ff       	jmpq   40fcf0 <_init+0x20>

000000000040fe70 <strcpy@plt>:
  40fe70:	ff 25 5a 92 22 00    	jmpq   *0x22925a(%rip)        # 6390d0 <_GLOBAL_OFFSET_TABLE_+0xd0>
  40fe76:	68 17 00 00 00       	pushq  $0x17
  40fe7b:	e9 70 fe ff ff       	jmpq   40fcf0 <_init+0x20>

000000000040fe80 <_ZN2cv11FileStorage8writeRawERKSsPKhm@plt>:
  40fe80:	ff 25 52 92 22 00    	jmpq   *0x229252(%rip)        # 6390d8 <_GLOBAL_OFFSET_TABLE_+0xd8>
  40fe86:	68 18 00 00 00       	pushq  $0x18
  40fe8b:	e9 60 fe ff ff       	jmpq   40fcf0 <_init+0x20>

000000000040fe90 <fclose@plt>:
  40fe90:	ff 25 4a 92 22 00    	jmpq   *0x22924a(%rip)        # 6390e0 <_GLOBAL_OFFSET_TABLE_+0xe0>
  40fe96:	68 19 00 00 00       	pushq  $0x19
  40fe9b:	e9 50 fe ff ff       	jmpq   40fcf0 <_init+0x20>

000000000040fea0 <_Znam@plt>:
  40fea0:	ff 25 42 92 22 00    	jmpq   *0x229242(%rip)        # 6390e8 <_GLOBAL_OFFSET_TABLE_+0xe8>
  40fea6:	68 1a 00 00 00       	pushq  $0x1a
  40feab:	e9 40 fe ff ff       	jmpq   40fcf0 <_init+0x20>

000000000040feb0 <sqrt@plt>:
  40feb0:	ff 25 3a 92 22 00    	jmpq   *0x22923a(%rip)        # 6390f0 <_GLOBAL_OFFSET_TABLE_+0xf0>
  40feb6:	68 1b 00 00 00       	pushq  $0x1b
  40febb:	e9 30 fe ff ff       	jmpq   40fcf0 <_init+0x20>

000000000040fec0 <_ZN2cv5writeERNS_11FileStorageERKSsi@plt>:
  40fec0:	ff 25 32 92 22 00    	jmpq   *0x229232(%rip)        # 6390f8 <_GLOBAL_OFFSET_TABLE_+0xf8>
  40fec6:	68 1c 00 00 00       	pushq  $0x1c
  40fecb:	e9 20 fe ff ff       	jmpq   40fcf0 <_init+0x20>

000000000040fed0 <_ZN2cv3Mat10deallocateEv@plt>:
  40fed0:	ff 25 2a 92 22 00    	jmpq   *0x22922a(%rip)        # 639100 <_GLOBAL_OFFSET_TABLE_+0x100>
  40fed6:	68 1d 00 00 00       	pushq  $0x1d
  40fedb:	e9 10 fe ff ff       	jmpq   40fcf0 <_init+0x20>

000000000040fee0 <fflush@plt>:
  40fee0:	ff 25 22 92 22 00    	jmpq   *0x229222(%rip)        # 639108 <_GLOBAL_OFFSET_TABLE_+0x108>
  40fee6:	68 1e 00 00 00       	pushq  $0x1e
  40feeb:	e9 00 fe ff ff       	jmpq   40fcf0 <_init+0x20>

000000000040fef0 <_ZN2cv9ExceptionC1EiRKSsS2_S2_i@plt>:
  40fef0:	ff 25 1a 92 22 00    	jmpq   *0x22921a(%rip)        # 639110 <_GLOBAL_OFFSET_TABLE_+0x110>
  40fef6:	68 1f 00 00 00       	pushq  $0x1f
  40fefb:	e9 f0 fd ff ff       	jmpq   40fcf0 <_init+0x20>

000000000040ff00 <fread@plt>:
  40ff00:	ff 25 12 92 22 00    	jmpq   *0x229212(%rip)        # 639118 <_GLOBAL_OFFSET_TABLE_+0x118>
  40ff06:	68 20 00 00 00       	pushq  $0x20
  40ff0b:	e9 e0 fd ff ff       	jmpq   40fcf0 <_init+0x20>

000000000040ff10 <_ZN2cv15NAryMatIteratorC1EPPKNS_3MatEPPhi@plt>:
  40ff10:	ff 25 0a 92 22 00    	jmpq   *0x22920a(%rip)        # 639120 <_GLOBAL_OFFSET_TABLE_+0x120>
  40ff16:	68 21 00 00 00       	pushq  $0x21
  40ff1b:	e9 d0 fd ff ff       	jmpq   40fcf0 <_init+0x20>

000000000040ff20 <_ZdlPv@plt>:
  40ff20:	ff 25 02 92 22 00    	jmpq   *0x229202(%rip)        # 639128 <_GLOBAL_OFFSET_TABLE_+0x128>
  40ff26:	68 22 00 00 00       	pushq  $0x22
  40ff2b:	e9 c0 fd ff ff       	jmpq   40fcf0 <_init+0x20>

000000000040ff30 <__gxx_personality_v0@plt>:
  40ff30:	ff 25 fa 91 22 00    	jmpq   *0x2291fa(%rip)        # 639130 <_GLOBAL_OFFSET_TABLE_+0x130>
  40ff36:	68 23 00 00 00       	pushq  $0x23
  40ff3b:	e9 b0 fd ff ff       	jmpq   40fcf0 <_init+0x20>

000000000040ff40 <_ZSt20__throw_length_errorPKc@plt>:
  40ff40:	ff 25 f2 91 22 00    	jmpq   *0x2291f2(%rip)        # 639138 <_GLOBAL_OFFSET_TABLE_+0x138>
  40ff46:	68 24 00 00 00       	pushq  $0x24
  40ff4b:	e9 a0 fd ff ff       	jmpq   40fcf0 <_init+0x20>

000000000040ff50 <__cxa_throw@plt>:
  40ff50:	ff 25 ea 91 22 00    	jmpq   *0x2291ea(%rip)        # 639140 <_GLOBAL_OFFSET_TABLE_+0x140>
  40ff56:	68 25 00 00 00       	pushq  $0x25
  40ff5b:	e9 90 fd ff ff       	jmpq   40fcf0 <_init+0x20>

000000000040ff60 <_ZN2cv5errorERKNS_9ExceptionE@plt>:
  40ff60:	ff 25 e2 91 22 00    	jmpq   *0x2291e2(%rip)        # 639148 <_GLOBAL_OFFSET_TABLE_+0x148>
  40ff66:	68 26 00 00 00       	pushq  $0x26
  40ff6b:	e9 80 fd ff ff       	jmpq   40fcf0 <_init+0x20>

000000000040ff70 <fgets@plt>:
  40ff70:	ff 25 da 91 22 00    	jmpq   *0x2291da(%rip)        # 639150 <_GLOBAL_OFFSET_TABLE_+0x150>
  40ff76:	68 27 00 00 00       	pushq  $0x27
  40ff7b:	e9 70 fd ff ff       	jmpq   40fcf0 <_init+0x20>

000000000040ff80 <_ZNK2cv11FileStorageixERKSs@plt>:
  40ff80:	ff 25 d2 91 22 00    	jmpq   *0x2291d2(%rip)        # 639158 <_GLOBAL_OFFSET_TABLE_+0x158>
  40ff86:	68 28 00 00 00       	pushq  $0x28
  40ff8b:	e9 60 fd ff ff       	jmpq   40fcf0 <_init+0x20>

000000000040ff90 <_Unwind_Resume@plt>:
  40ff90:	ff 25 ca 91 22 00    	jmpq   *0x2291ca(%rip)        # 639160 <_GLOBAL_OFFSET_TABLE_+0x160>
  40ff96:	68 29 00 00 00       	pushq  $0x29
  40ff9b:	e9 50 fd ff ff       	jmpq   40fcf0 <_init+0x20>

000000000040ffa0 <_ZN2cv6imshowERKSsRKNS_11_InputArrayE@plt>:
  40ffa0:	ff 25 c2 91 22 00    	jmpq   *0x2291c2(%rip)        # 639168 <_GLOBAL_OFFSET_TABLE_+0x168>
  40ffa6:	68 2a 00 00 00       	pushq  $0x2a
  40ffab:	e9 40 fd ff ff       	jmpq   40fcf0 <_init+0x20>

000000000040ffb0 <_ZN2cv11_InputArrayC1ERKNS_3MatE@plt>:
  40ffb0:	ff 25 ba 91 22 00    	jmpq   *0x2291ba(%rip)        # 639170 <_GLOBAL_OFFSET_TABLE_+0x170>
  40ffb6:	68 2b 00 00 00       	pushq  $0x2b
  40ffbb:	e9 30 fd ff ff       	jmpq   40fcf0 <_init+0x20>

000000000040ffc0 <_ZNK2cv11FileStorage4rootEi@plt>:
  40ffc0:	ff 25 b2 91 22 00    	jmpq   *0x2291b2(%rip)        # 639178 <_GLOBAL_OFFSET_TABLE_+0x178>
  40ffc6:	68 2c 00 00 00       	pushq  $0x2c
  40ffcb:	e9 20 fd ff ff       	jmpq   40fcf0 <_init+0x20>

000000000040ffd0 <isspace@plt>:
  40ffd0:	ff 25 aa 91 22 00    	jmpq   *0x2291aa(%rip)        # 639180 <_GLOBAL_OFFSET_TABLE_+0x180>
  40ffd6:	68 2d 00 00 00       	pushq  $0x2d
  40ffdb:	e9 10 fd ff ff       	jmpq   40fcf0 <_init+0x20>

000000000040ffe0 <__cxa_end_catch@plt>:
  40ffe0:	ff 25 a2 91 22 00    	jmpq   *0x2291a2(%rip)        # 639188 <_GLOBAL_OFFSET_TABLE_+0x188>
  40ffe6:	68 2e 00 00 00       	pushq  $0x2e
  40ffeb:	e9 00 fd ff ff       	jmpq   40fcf0 <_init+0x20>

000000000040fff0 <expf@plt>:
  40fff0:	ff 25 9a 91 22 00    	jmpq   *0x22919a(%rip)        # 639190 <_GLOBAL_OFFSET_TABLE_+0x190>
  40fff6:	68 2f 00 00 00       	pushq  $0x2f
  40fffb:	e9 f0 fc ff ff       	jmpq   40fcf0 <_init+0x20>

0000000000410000 <_ZN2cv5Mutex6unlockEv@plt>:
  410000:	ff 25 92 91 22 00    	jmpq   *0x229192(%rip)        # 639198 <_GLOBAL_OFFSET_TABLE_+0x198>
  410006:	68 30 00 00 00       	pushq  $0x30
  41000b:	e9 e0 fc ff ff       	jmpq   40fcf0 <_init+0x20>

0000000000410010 <_ZNKSs5emptyEv@plt>:
  410010:	ff 25 8a 91 22 00    	jmpq   *0x22918a(%rip)        # 6391a0 <_GLOBAL_OFFSET_TABLE_+0x1a0>
  410016:	68 31 00 00 00       	pushq  $0x31
  41001b:	e9 d0 fc ff ff       	jmpq   40fcf0 <_init+0x20>

0000000000410020 <__cxa_rethrow@plt>:
  410020:	ff 25 82 91 22 00    	jmpq   *0x229182(%rip)        # 6391a8 <_GLOBAL_OFFSET_TABLE_+0x1a8>
  410026:	68 32 00 00 00       	pushq  $0x32
  41002b:	e9 c0 fc ff ff       	jmpq   40fcf0 <_init+0x20>

0000000000410030 <_ZN2cv9ExceptionD1Ev@plt>:
  410030:	ff 25 7a 91 22 00    	jmpq   *0x22917a(%rip)        # 6391b0 <_GLOBAL_OFFSET_TABLE_+0x1b0>
  410036:	68 33 00 00 00       	pushq  $0x33
  41003b:	e9 b0 fc ff ff       	jmpq   40fcf0 <_init+0x20>

0000000000410040 <_ZN2cv7waitKeyEi@plt>:
  410040:	ff 25 72 91 22 00    	jmpq   *0x229172(%rip)        # 6391b8 <_GLOBAL_OFFSET_TABLE_+0x1b8>
  410046:	68 34 00 00 00       	pushq  $0x34
  41004b:	e9 a0 fc ff ff       	jmpq   40fcf0 <_init+0x20>

0000000000410050 <_ZN2cv5Mutex4lockEv@plt>:
  410050:	ff 25 6a 91 22 00    	jmpq   *0x22916a(%rip)        # 6391c0 <_GLOBAL_OFFSET_TABLE_+0x1c0>
  410056:	68 35 00 00 00       	pushq  $0x35
  41005b:	e9 90 fc ff ff       	jmpq   40fcf0 <_init+0x20>

0000000000410060 <strcmp@plt>:
  410060:	ff 25 62 91 22 00    	jmpq   *0x229162(%rip)        # 6391c8 <_GLOBAL_OFFSET_TABLE_+0x1c8>
  410066:	68 36 00 00 00       	pushq  $0x36
  41006b:	e9 80 fc ff ff       	jmpq   40fcf0 <_init+0x20>

0000000000410070 <_ZN2cv12getTickCountEv@plt>:
  410070:	ff 25 5a 91 22 00    	jmpq   *0x22915a(%rip)        # 6391d0 <_GLOBAL_OFFSET_TABLE_+0x1d0>
  410076:	68 37 00 00 00       	pushq  $0x37
  41007b:	e9 70 fc ff ff       	jmpq   40fcf0 <_init+0x20>

0000000000410080 <_ZN2cv16FileNodeIterator7readRawERKSsPhm@plt>:
  410080:	ff 25 52 91 22 00    	jmpq   *0x229152(%rip)        # 6391d8 <_GLOBAL_OFFSET_TABLE_+0x1d8>
  410086:	68 38 00 00 00       	pushq  $0x38
  41008b:	e9 60 fc ff ff       	jmpq   40fcf0 <_init+0x20>

0000000000410090 <_ZN2cv16FileNodeIteratorC1EPK13CvFileStoragePK10CvFileNodem@plt>:
  410090:	ff 25 4a 91 22 00    	jmpq   *0x22914a(%rip)        # 6391e0 <_GLOBAL_OFFSET_TABLE_+0x1e0>
  410096:	68 39 00 00 00       	pushq  $0x39
  41009b:	e9 50 fc ff ff       	jmpq   40fcf0 <_init+0x20>

00000000004100a0 <_ZN2cv11writeScalarERNS_11FileStorageEi@plt>:
  4100a0:	ff 25 42 91 22 00    	jmpq   *0x229142(%rip)        # 6391e8 <_GLOBAL_OFFSET_TABLE_+0x1e8>
  4100a6:	68 3a 00 00 00       	pushq  $0x3a
  4100ab:	e9 40 fc ff ff       	jmpq   40fcf0 <_init+0x20>

00000000004100b0 <__cxa_atexit@plt>:
  4100b0:	ff 25 3a 91 22 00    	jmpq   *0x22913a(%rip)        # 6391f0 <_GLOBAL_OFFSET_TABLE_+0x1f0>
  4100b6:	68 3b 00 00 00       	pushq  $0x3b
  4100bb:	e9 30 fc ff ff       	jmpq   40fcf0 <_init+0x20>

00000000004100c0 <__cxa_free_exception@plt>:
  4100c0:	ff 25 32 91 22 00    	jmpq   *0x229132(%rip)        # 6391f8 <_GLOBAL_OFFSET_TABLE_+0x1f8>
  4100c6:	68 3c 00 00 00       	pushq  $0x3c
  4100cb:	e9 20 fc ff ff       	jmpq   40fcf0 <_init+0x20>

00000000004100d0 <_ZNK2cv3Mat9locateROIERNS_5Size_IiEERNS_6Point_IiEE@plt>:
  4100d0:	ff 25 2a 91 22 00    	jmpq   *0x22912a(%rip)        # 639200 <_GLOBAL_OFFSET_TABLE_+0x200>
  4100d6:	68 3d 00 00 00       	pushq  $0x3d
  4100db:	e9 10 fc ff ff       	jmpq   40fcf0 <_init+0x20>

00000000004100e0 <_ZN2cv16FileNodeIteratorppEv@plt>:
  4100e0:	ff 25 22 91 22 00    	jmpq   *0x229122(%rip)        # 639208 <_GLOBAL_OFFSET_TABLE_+0x208>
  4100e6:	68 3e 00 00 00       	pushq  $0x3e
  4100eb:	e9 00 fc ff ff       	jmpq   40fcf0 <_init+0x20>

00000000004100f0 <_ZN2cv18WriteStructContextC1ERNS_11FileStorageERKSsiS4_@plt>:
  4100f0:	ff 25 1a 91 22 00    	jmpq   *0x22911a(%rip)        # 639210 <_GLOBAL_OFFSET_TABLE_+0x210>
  4100f6:	68 3f 00 00 00       	pushq  $0x3f
  4100fb:	e9 f0 fb ff ff       	jmpq   40fcf0 <_init+0x20>

0000000000410100 <mcount@plt>:
  410100:	ff 25 12 91 22 00    	jmpq   *0x229112(%rip)        # 639218 <_GLOBAL_OFFSET_TABLE_+0x218>
  410106:	68 40 00 00 00       	pushq  $0x40
  41010b:	e9 e0 fb ff ff       	jmpq   40fcf0 <_init+0x20>

0000000000410110 <_ZN2cv5MutexC1Ev@plt>:
  410110:	ff 25 0a 91 22 00    	jmpq   *0x22910a(%rip)        # 639220 <_GLOBAL_OFFSET_TABLE_+0x220>
  410116:	68 41 00 00 00       	pushq  $0x41
  41011b:	e9 d0 fb ff ff       	jmpq   40fcf0 <_init+0x20>

0000000000410120 <_ZN2cv8fastFreeEPv@plt>:
  410120:	ff 25 02 91 22 00    	jmpq   *0x229102(%rip)        # 639228 <_GLOBAL_OFFSET_TABLE_+0x228>
  410126:	68 42 00 00 00       	pushq  $0x42
  41012b:	e9 c0 fb ff ff       	jmpq   40fcf0 <_init+0x20>

0000000000410130 <__pthread_key_create@plt>:
  410130:	ff 25 fa 90 22 00    	jmpq   *0x2290fa(%rip)        # 639230 <_GLOBAL_OFFSET_TABLE_+0x230>
  410136:	68 43 00 00 00       	pushq  $0x43
  41013b:	e9 b0 fb ff ff       	jmpq   40fcf0 <_init+0x20>

0000000000410140 <_ZN2cv18WriteStructContextD1Ev@plt>:
  410140:	ff 25 f2 90 22 00    	jmpq   *0x2290f2(%rip)        # 639238 <_GLOBAL_OFFSET_TABLE_+0x238>
  410146:	68 44 00 00 00       	pushq  $0x44
  41014b:	e9 a0 fb ff ff       	jmpq   40fcf0 <_init+0x20>

0000000000410150 <__libc_start_main@plt>:
  410150:	ff 25 ea 90 22 00    	jmpq   *0x2290ea(%rip)        # 639240 <_GLOBAL_OFFSET_TABLE_+0x240>
  410156:	68 45 00 00 00       	pushq  $0x45
  41015b:	e9 90 fb ff ff       	jmpq   40fcf0 <_init+0x20>

0000000000410160 <_ZNSaIcEC1Ev@plt>:
  410160:	ff 25 e2 90 22 00    	jmpq   *0x2290e2(%rip)        # 639248 <_GLOBAL_OFFSET_TABLE_+0x248>
  410166:	68 46 00 00 00       	pushq  $0x46
  41016b:	e9 80 fb ff ff       	jmpq   40fcf0 <_init+0x20>

0000000000410170 <sqrtf@plt>:
  410170:	ff 25 da 90 22 00    	jmpq   *0x2290da(%rip)        # 639250 <_GLOBAL_OFFSET_TABLE_+0x250>
  410176:	68 47 00 00 00       	pushq  $0x47
  41017b:	e9 70 fb ff ff       	jmpq   40fcf0 <_init+0x20>

0000000000410180 <puts@plt>:
  410180:	ff 25 d2 90 22 00    	jmpq   *0x2290d2(%rip)        # 639258 <_GLOBAL_OFFSET_TABLE_+0x258>
  410186:	68 48 00 00 00       	pushq  $0x48
  41018b:	e9 60 fb ff ff       	jmpq   40fcf0 <_init+0x20>

0000000000410190 <_ZN2cv16ParallelLoopBodyD2Ev@plt>:
  410190:	ff 25 ca 90 22 00    	jmpq   *0x2290ca(%rip)        # 639260 <_GLOBAL_OFFSET_TABLE_+0x260>
  410196:	68 49 00 00 00       	pushq  $0x49
  41019b:	e9 50 fb ff ff       	jmpq   40fcf0 <_init+0x20>

00000000004101a0 <_ZN2cv3Mat6createEiPKii@plt>:
  4101a0:	ff 25 c2 90 22 00    	jmpq   *0x2290c2(%rip)        # 639268 <_GLOBAL_OFFSET_TABLE_+0x268>
  4101a6:	68 4a 00 00 00       	pushq  $0x4a
  4101ab:	e9 40 fb ff ff       	jmpq   40fcf0 <_init+0x20>

00000000004101b0 <__monstartup@plt>:
  4101b0:	ff 25 ba 90 22 00    	jmpq   *0x2290ba(%rip)        # 639270 <_GLOBAL_OFFSET_TABLE_+0x270>
  4101b6:	68 4b 00 00 00       	pushq  $0x4b
  4101bb:	e9 30 fb ff ff       	jmpq   40fcf0 <_init+0x20>

00000000004101c0 <_ZN2cv6resizeERKNS_11_InputArrayERKNS_12_OutputArrayENS_5Size_IiEEddi@plt>:
  4101c0:	ff 25 b2 90 22 00    	jmpq   *0x2290b2(%rip)        # 639278 <_GLOBAL_OFFSET_TABLE_+0x278>
  4101c6:	68 4c 00 00 00       	pushq  $0x4c
  4101cb:	e9 20 fb ff ff       	jmpq   40fcf0 <_init+0x20>

00000000004101d0 <_ZN2cv6imreadERKSsi@plt>:
  4101d0:	ff 25 aa 90 22 00    	jmpq   *0x2290aa(%rip)        # 639280 <_GLOBAL_OFFSET_TABLE_+0x280>
  4101d6:	68 4d 00 00 00       	pushq  $0x4d
  4101db:	e9 10 fb ff ff       	jmpq   40fcf0 <_init+0x20>

00000000004101e0 <_mcleanup@plt>:
  4101e0:	ff 25 a2 90 22 00    	jmpq   *0x2290a2(%rip)        # 639288 <_GLOBAL_OFFSET_TABLE_+0x288>
  4101e6:	68 4e 00 00 00       	pushq  $0x4e
  4101eb:	e9 00 fb ff ff       	jmpq   40fcf0 <_init+0x20>

00000000004101f0 <_ZN2cv3MataSERKNS_7Scalar_IdEE@plt>:
  4101f0:	ff 25 9a 90 22 00    	jmpq   *0x22909a(%rip)        # 639290 <_GLOBAL_OFFSET_TABLE_+0x290>
  4101f6:	68 4f 00 00 00       	pushq  $0x4f
  4101fb:	e9 f0 fa ff ff       	jmpq   40fcf0 <_init+0x20>

0000000000410200 <_ZN2cvlsERNS_11FileStorageERKSs@plt>:
  410200:	ff 25 92 90 22 00    	jmpq   *0x229092(%rip)        # 639298 <_GLOBAL_OFFSET_TABLE_+0x298>
  410206:	68 50 00 00 00       	pushq  $0x50
  41020b:	e9 e0 fa ff ff       	jmpq   40fcf0 <_init+0x20>

0000000000410210 <fwrite@plt>:
  410210:	ff 25 8a 90 22 00    	jmpq   *0x22908a(%rip)        # 6392a0 <_GLOBAL_OFFSET_TABLE_+0x2a0>
  410216:	68 51 00 00 00       	pushq  $0x51
  41021b:	e9 d0 fa ff ff       	jmpq   40fcf0 <_init+0x20>

0000000000410220 <_ZNK2cv3Mat9convertToERKNS_12_OutputArrayEidd@plt>:
  410220:	ff 25 82 90 22 00    	jmpq   *0x229082(%rip)        # 6392a8 <_GLOBAL_OFFSET_TABLE_+0x2a8>
  410226:	68 52 00 00 00       	pushq  $0x52
  41022b:	e9 c0 fa ff ff       	jmpq   40fcf0 <_init+0x20>

0000000000410230 <_ZN2cv11FileStorageC1ERKSsiS2_@plt>:
  410230:	ff 25 7a 90 22 00    	jmpq   *0x22907a(%rip)        # 6392b0 <_GLOBAL_OFFSET_TABLE_+0x2b0>
  410236:	68 53 00 00 00       	pushq  $0x53
  41023b:	e9 b0 fa ff ff       	jmpq   40fcf0 <_init+0x20>

0000000000410240 <_ZNKSs5c_strEv@plt>:
  410240:	ff 25 72 90 22 00    	jmpq   *0x229072(%rip)        # 6392b8 <_GLOBAL_OFFSET_TABLE_+0x2b8>
  410246:	68 54 00 00 00       	pushq  $0x54
  41024b:	e9 a0 fa ff ff       	jmpq   40fcf0 <_init+0x20>

0000000000410250 <_ZN2cv25groupRectangles_meanshiftERSt6vectorINS_5Rect_IiEESaIS2_EERS0_IdSaIdEES8_dNS_5Size_IiEE@plt>:
  410250:	ff 25 6a 90 22 00    	jmpq   *0x22906a(%rip)        # 6392c0 <_GLOBAL_OFFSET_TABLE_+0x2c0>
  410256:	68 55 00 00 00       	pushq  $0x55
  41025b:	e9 90 fa ff ff       	jmpq   40fcf0 <_init+0x20>

0000000000410260 <_ZN2cv5MutexD1Ev@plt>:
  410260:	ff 25 62 90 22 00    	jmpq   *0x229062(%rip)        # 6392c8 <_GLOBAL_OFFSET_TABLE_+0x2c8>
  410266:	68 56 00 00 00       	pushq  $0x56
  41026b:	e9 80 fa ff ff       	jmpq   40fcf0 <_init+0x20>

0000000000410270 <_ZN2cv11namedWindowERKSsi@plt>:
  410270:	ff 25 5a 90 22 00    	jmpq   *0x22905a(%rip)        # 6392d0 <_GLOBAL_OFFSET_TABLE_+0x2d0>
  410276:	68 57 00 00 00       	pushq  $0x57
  41027b:	e9 70 fa ff ff       	jmpq   40fcf0 <_init+0x20>

0000000000410280 <_ZNSsD1Ev@plt>:
  410280:	ff 25 52 90 22 00    	jmpq   *0x229052(%rip)        # 6392d8 <_GLOBAL_OFFSET_TABLE_+0x2d8>
  410286:	68 58 00 00 00       	pushq  $0x58
  41028b:	e9 60 fa ff ff       	jmpq   40fcf0 <_init+0x20>

0000000000410290 <_ZNSsC1EPKcRKSaIcE@plt>:
  410290:	ff 25 4a 90 22 00    	jmpq   *0x22904a(%rip)        # 6392e0 <_GLOBAL_OFFSET_TABLE_+0x2e0>
  410296:	68 59 00 00 00       	pushq  $0x59
  41029b:	e9 50 fa ff ff       	jmpq   40fcf0 <_init+0x20>

00000000004102a0 <fopen@plt>:
  4102a0:	ff 25 42 90 22 00    	jmpq   *0x229042(%rip)        # 6392e8 <_GLOBAL_OFFSET_TABLE_+0x2e8>
  4102a6:	68 5a 00 00 00       	pushq  $0x5a
  4102ab:	e9 40 fa ff ff       	jmpq   40fcf0 <_init+0x20>

00000000004102b0 <_ZNSaIcED1Ev@plt>:
  4102b0:	ff 25 3a 90 22 00    	jmpq   *0x22903a(%rip)        # 6392f0 <_GLOBAL_OFFSET_TABLE_+0x2f0>
  4102b6:	68 5b 00 00 00       	pushq  $0x5b
  4102bb:	e9 30 fa ff ff       	jmpq   40fcf0 <_init+0x20>

Disassembly of section .text:

00000000004102c0 <_start>:
  4102c0:	31 ed                	xor    %ebp,%ebp
  4102c2:	49 89 d1             	mov    %rdx,%r9
  4102c5:	5e                   	pop    %rsi
  4102c6:	48 89 e2             	mov    %rsp,%rdx
  4102c9:	48 83 e4 f0          	and    $0xfffffffffffffff0,%rsp
  4102cd:	50                   	push   %rax
  4102ce:	54                   	push   %rsp
  4102cf:	49 c7 c0 50 9c 42 00 	mov    $0x429c50,%r8
  4102d6:	48 c7 c1 e0 9b 42 00 	mov    $0x429be0,%rcx
  4102dd:	48 c7 c7 c7 a6 41 00 	mov    $0x41a6c7,%rdi
  4102e4:	e8 67 fe ff ff       	callq  410150 <__libc_start_main@plt>
  4102e9:	f4                   	hlt    
  4102ea:	66 0f 1f 44 00 00    	nopw   0x0(%rax,%rax,1)

00000000004102f0 <__gmon_start__>:
  4102f0:	8b 05 9a 92 22 00    	mov    0x22929a(%rip),%eax        # 639590 <called.4237>
  4102f6:	85 c0                	test   %eax,%eax
  4102f8:	74 06                	je     410300 <__gmon_start__+0x10>
  4102fa:	f3 c3                	repz retq 
  4102fc:	0f 1f 40 00          	nopl   0x0(%rax)
  410300:	48 83 ec 08          	sub    $0x8,%rsp
  410304:	bf c0 02 41 00       	mov    $0x4102c0,%edi
  410309:	be 85 9c 42 00       	mov    $0x429c85,%esi
  41030e:	c7 05 78 92 22 00 01 	movl   $0x1,0x229278(%rip)        # 639590 <called.4237>
  410315:	00 00 00 
  410318:	e8 93 fe ff ff       	callq  4101b0 <__monstartup@plt>
  41031d:	bf e0 01 41 00       	mov    $0x4101e0,%edi
  410322:	48 83 c4 08          	add    $0x8,%rsp
  410326:	e9 35 99 01 00       	jmpq   429c60 <atexit>
  41032b:	0f 1f 44 00 00       	nopl   0x0(%rax,%rax,1)

0000000000410330 <deregister_tm_clones>:
  410330:	b8 0f 93 63 00       	mov    $0x63930f,%eax
  410335:	55                   	push   %rbp
  410336:	48 2d 08 93 63 00    	sub    $0x639308,%rax
  41033c:	48 83 f8 0e          	cmp    $0xe,%rax
  410340:	48 89 e5             	mov    %rsp,%rbp
  410343:	77 02                	ja     410347 <deregister_tm_clones+0x17>
  410345:	5d                   	pop    %rbp
  410346:	c3                   	retq   
  410347:	b8 00 00 00 00       	mov    $0x0,%eax
  41034c:	48 85 c0             	test   %rax,%rax
  41034f:	74 f4                	je     410345 <deregister_tm_clones+0x15>
  410351:	5d                   	pop    %rbp
  410352:	bf 08 93 63 00       	mov    $0x639308,%edi
  410357:	ff e0                	jmpq   *%rax
  410359:	0f 1f 80 00 00 00 00 	nopl   0x0(%rax)

0000000000410360 <register_tm_clones>:
  410360:	b8 08 93 63 00       	mov    $0x639308,%eax
  410365:	55                   	push   %rbp
  410366:	48 2d 08 93 63 00    	sub    $0x639308,%rax
  41036c:	48 c1 f8 03          	sar    $0x3,%rax
  410370:	48 89 e5             	mov    %rsp,%rbp
  410373:	48 89 c2             	mov    %rax,%rdx
  410376:	48 c1 ea 3f          	shr    $0x3f,%rdx
  41037a:	48 01 d0             	add    %rdx,%rax
  41037d:	48 d1 f8             	sar    %rax
  410380:	75 02                	jne    410384 <register_tm_clones+0x24>
  410382:	5d                   	pop    %rbp
  410383:	c3                   	retq   
  410384:	ba 00 00 00 00       	mov    $0x0,%edx
  410389:	48 85 d2             	test   %rdx,%rdx
  41038c:	74 f4                	je     410382 <register_tm_clones+0x22>
  41038e:	5d                   	pop    %rbp
  41038f:	48 89 c6             	mov    %rax,%rsi
  410392:	bf 08 93 63 00       	mov    $0x639308,%edi
  410397:	ff e2                	jmpq   *%rdx
  410399:	0f 1f 80 00 00 00 00 	nopl   0x0(%rax)

00000000004103a0 <__do_global_dtors_aux>:
  4103a0:	80 3d ed 91 22 00 00 	cmpb   $0x0,0x2291ed(%rip)        # 639594 <completed.6972>
  4103a7:	75 11                	jne    4103ba <__do_global_dtors_aux+0x1a>
  4103a9:	55                   	push   %rbp
  4103aa:	48 89 e5             	mov    %rsp,%rbp
  4103ad:	e8 7e ff ff ff       	callq  410330 <deregister_tm_clones>
  4103b2:	5d                   	pop    %rbp
  4103b3:	c6 05 da 91 22 00 01 	movb   $0x1,0x2291da(%rip)        # 639594 <completed.6972>
  4103ba:	f3 c3                	repz retq 
  4103bc:	0f 1f 40 00          	nopl   0x0(%rax)

00000000004103c0 <frame_dummy>:
  4103c0:	48 83 3d f0 89 22 00 	cmpq   $0x0,0x2289f0(%rip)        # 638db8 <__JCR_END__>
  4103c7:	00 
  4103c8:	74 1e                	je     4103e8 <frame_dummy+0x28>
  4103ca:	b8 00 00 00 00       	mov    $0x0,%eax
  4103cf:	48 85 c0             	test   %rax,%rax
  4103d2:	74 14                	je     4103e8 <frame_dummy+0x28>
  4103d4:	55                   	push   %rbp
  4103d5:	bf b8 8d 63 00       	mov    $0x638db8,%edi
  4103da:	48 89 e5             	mov    %rsp,%rbp
  4103dd:	ff d0                	callq  *%rax
  4103df:	5d                   	pop    %rbp
  4103e0:	e9 7b ff ff ff       	jmpq   410360 <register_tm_clones>
  4103e5:	0f 1f 00             	nopl   (%rax)
  4103e8:	e9 73 ff ff ff       	jmpq   410360 <register_tm_clones>
  4103ed:	90                   	nop

00000000004103ee <_ZN2cvL9alignSizeEmi>:
  4103ee:	55                   	push   %rbp
  4103ef:	48 89 e5             	mov    %rsp,%rbp
  4103f2:	48 83 ec 10          	sub    $0x10,%rsp
  4103f6:	e8 05 fd ff ff       	callq  410100 <mcount@plt>
  4103fb:	48 89 7d f8          	mov    %rdi,-0x8(%rbp)
  4103ff:	89 75 f4             	mov    %esi,-0xc(%rbp)
  410402:	8b 45 f4             	mov    -0xc(%rbp),%eax
  410405:	83 e8 01             	sub    $0x1,%eax
  410408:	23 45 f4             	and    -0xc(%rbp),%eax
  41040b:	85 c0                	test   %eax,%eax
  41040d:	74 19                	je     410428 <_ZN2cvL9alignSizeEmi+0x3a>
  41040f:	b9 80 a5 42 00       	mov    $0x42a580,%ecx
  410414:	ba 59 01 00 00       	mov    $0x159,%edx
  410419:	be c0 9c 42 00       	mov    $0x429cc0,%esi
  41041e:	bf 06 9d 42 00       	mov    $0x429d06,%edi
  410423:	e8 88 f9 ff ff       	callq  40fdb0 <__assert_fail@plt>
  410428:	8b 45 f4             	mov    -0xc(%rbp),%eax
  41042b:	48 63 d0             	movslq %eax,%rdx
  41042e:	48 8b 45 f8          	mov    -0x8(%rbp),%rax
  410432:	48 01 d0             	add    %rdx,%rax
  410435:	48 8d 50 ff          	lea    -0x1(%rax),%rdx
  410439:	8b 45 f4             	mov    -0xc(%rbp),%eax
  41043c:	f7 d8                	neg    %eax
  41043e:	48 98                	cltq   
  410440:	48 21 d0             	and    %rdx,%rax
  410443:	c9                   	leaveq 
  410444:	c3                   	retq   

0000000000410445 <_ZN2cvL13saturate_castIiEET_d>:
  410445:	55                   	push   %rbp
  410446:	48 89 e5             	mov    %rsp,%rbp
  410449:	48 83 ec 10          	sub    $0x10,%rsp
  41044d:	e8 ae fc ff ff       	callq  410100 <mcount@plt>
  410452:	f2 0f 11 45 f8       	movsd  %xmm0,-0x8(%rbp)
  410457:	48 8b 45 f8          	mov    -0x8(%rbp),%rax
  41045b:	48 89 45 f0          	mov    %rax,-0x10(%rbp)
  41045f:	f2 0f 10 45 f0       	movsd  -0x10(%rbp),%xmm0
  410464:	e8 31 bf 00 00       	callq  41c39a <_Z7cvRoundd>
  410469:	c9                   	leaveq 
  41046a:	c3                   	retq   

000000000041046b <_ZN2cvlsERNS_11FileStorageEPKc>:
  41046b:	55                   	push   %rbp
  41046c:	48 89 e5             	mov    %rsp,%rbp
  41046f:	53                   	push   %rbx
  410470:	48 83 ec 38          	sub    $0x38,%rsp
  410474:	e8 87 fc ff ff       	callq  410100 <mcount@plt>
  410479:	48 89 7d c8          	mov    %rdi,-0x38(%rbp)
  41047d:	48 89 75 c0          	mov    %rsi,-0x40(%rbp)
  410481:	48 8d 45 df          	lea    -0x21(%rbp),%rax
  410485:	48 89 c7             	mov    %rax,%rdi
  410488:	e8 d3 fc ff ff       	callq  410160 <_ZNSaIcEC1Ev@plt>
  41048d:	48 8d 55 df          	lea    -0x21(%rbp),%rdx
  410491:	48 8b 4d c0          	mov    -0x40(%rbp),%rcx
  410495:	48 8d 45 e0          	lea    -0x20(%rbp),%rax
  410499:	48 89 ce             	mov    %rcx,%rsi
  41049c:	48 89 c7             	mov    %rax,%rdi
  41049f:	e8 ec fd ff ff       	callq  410290 <_ZNSsC1EPKcRKSaIcE@plt>
  4104a4:	48 8d 55 e0          	lea    -0x20(%rbp),%rdx
  4104a8:	48 8b 45 c8          	mov    -0x38(%rbp),%rax
  4104ac:	48 89 d6             	mov    %rdx,%rsi
  4104af:	48 89 c7             	mov    %rax,%rdi
  4104b2:	e8 49 fd ff ff       	callq  410200 <_ZN2cvlsERNS_11FileStorageERKSs@plt>
  4104b7:	48 89 c3             	mov    %rax,%rbx
  4104ba:	48 8d 45 e0          	lea    -0x20(%rbp),%rax
  4104be:	48 89 c7             	mov    %rax,%rdi
  4104c1:	e8 ba fd ff ff       	callq  410280 <_ZNSsD1Ev@plt>
  4104c6:	48 8d 45 df          	lea    -0x21(%rbp),%rax
  4104ca:	48 89 c7             	mov    %rax,%rdi
  4104cd:	e8 de fd ff ff       	callq  4102b0 <_ZNSaIcED1Ev@plt>
  4104d2:	48 89 d8             	mov    %rbx,%rax
  4104d5:	eb 2b                	jmp    410502 <_ZN2cvlsERNS_11FileStorageEPKc+0x97>
  4104d7:	48 89 c3             	mov    %rax,%rbx
  4104da:	48 8d 45 e0          	lea    -0x20(%rbp),%rax
  4104de:	48 89 c7             	mov    %rax,%rdi
  4104e1:	e8 9a fd ff ff       	callq  410280 <_ZNSsD1Ev@plt>
  4104e6:	eb 03                	jmp    4104eb <_ZN2cvlsERNS_11FileStorageEPKc+0x80>
  4104e8:	48 89 c3             	mov    %rax,%rbx
  4104eb:	48 8d 45 df          	lea    -0x21(%rbp),%rax
  4104ef:	48 89 c7             	mov    %rax,%rdi
  4104f2:	e8 b9 fd ff ff       	callq  4102b0 <_ZNSaIcED1Ev@plt>
  4104f7:	48 89 d8             	mov    %rbx,%rax
  4104fa:	48 89 c7             	mov    %rax,%rdi
  4104fd:	e8 8e fa ff ff       	callq  40ff90 <_Unwind_Resume@plt>
  410502:	48 83 c4 38          	add    $0x38,%rsp
  410506:	5b                   	pop    %rbx
  410507:	5d                   	pop    %rbp
  410508:	c3                   	retq   

0000000000410509 <_ZN2cvL4readERKNS_8FileNodeERii>:
  410509:	55                   	push   %rbp
  41050a:	48 89 e5             	mov    %rsp,%rbp
  41050d:	48 83 ec 20          	sub    $0x20,%rsp
  410511:	e8 ea fb ff ff       	callq  410100 <mcount@plt>
  410516:	48 89 7d f8          	mov    %rdi,-0x8(%rbp)
  41051a:	48 89 75 f0          	mov    %rsi,-0x10(%rbp)
  41051e:	89 55 ec             	mov    %edx,-0x14(%rbp)
  410521:	48 8b 45 f8          	mov    -0x8(%rbp),%rax
  410525:	48 8b 40 08          	mov    0x8(%rax),%rax
  410529:	48 85 c0             	test   %rax,%rax
  41052c:	74 54                	je     410582 <_ZN2cvL4readERKNS_8FileNodeERii+0x79>
  41052e:	48 8b 45 f8          	mov    -0x8(%rbp),%rax
  410532:	48 8b 40 08          	mov    0x8(%rax),%rax
  410536:	8b 00                	mov    (%rax),%eax
  410538:	83 e0 07             	and    $0x7,%eax
  41053b:	83 f8 01             	cmp    $0x1,%eax
  41053e:	75 0d                	jne    41054d <_ZN2cvL4readERKNS_8FileNodeERii+0x44>
  410540:	48 8b 45 f8          	mov    -0x8(%rbp),%rax
  410544:	48 8b 40 08          	mov    0x8(%rax),%rax
  410548:	8b 40 10             	mov    0x10(%rax),%eax
  41054b:	eb 38                	jmp    410585 <_ZN2cvL4readERKNS_8FileNodeERii+0x7c>
  41054d:	48 8b 45 f8          	mov    -0x8(%rbp),%rax
  410551:	48 8b 40 08          	mov    0x8(%rax),%rax
  410555:	8b 00                	mov    (%rax),%eax
  410557:	83 e0 07             	and    $0x7,%eax
  41055a:	83 f8 02             	cmp    $0x2,%eax
  41055d:	75 1c                	jne    41057b <_ZN2cvL4readERKNS_8FileNodeERii+0x72>
  41055f:	48 8b 45 f8          	mov    -0x8(%rbp),%rax
  410563:	48 8b 40 08          	mov    0x8(%rax),%rax
  410567:	48 8b 40 10          	mov    0x10(%rax),%rax
  41056b:	48 89 45 e0          	mov    %rax,-0x20(%rbp)
  41056f:	f2 0f 10 45 e0       	movsd  -0x20(%rbp),%xmm0
  410574:	e8 21 be 00 00       	callq  41c39a <_Z7cvRoundd>
  410579:	eb 0a                	jmp    410585 <_ZN2cvL4readERKNS_8FileNodeERii+0x7c>
  41057b:	b8 ff ff ff 7f       	mov    $0x7fffffff,%eax
  410580:	eb 03                	jmp    410585 <_ZN2cvL4readERKNS_8FileNodeERii+0x7c>
  410582:	8b 45 ec             	mov    -0x14(%rbp),%eax
  410585:	48 8b 55 f0          	mov    -0x10(%rbp),%rdx
  410589:	89 02                	mov    %eax,(%rdx)
  41058b:	c9                   	leaveq 
  41058c:	c3                   	retq   

000000000041058d <_ZN2cvL4readERKNS_8FileNodeERbb>:
  41058d:	55                   	push   %rbp
  41058e:	48 89 e5             	mov    %rsp,%rbp
  410591:	48 83 ec 30          	sub    $0x30,%rsp
  410595:	e8 66 fb ff ff       	callq  410100 <mcount@plt>
  41059a:	48 89 7d e8          	mov    %rdi,-0x18(%rbp)
  41059e:	48 89 75 e0          	mov    %rsi,-0x20(%rbp)
  4105a2:	89 d0                	mov    %edx,%eax
  4105a4:	88 45 dc             	mov    %al,-0x24(%rbp)
  4105a7:	0f b6 55 dc          	movzbl -0x24(%rbp),%edx
  4105ab:	48 8d 4d fc          	lea    -0x4(%rbp),%rcx
  4105af:	48 8b 45 e8          	mov    -0x18(%rbp),%rax
  4105b3:	48 89 ce             	mov    %rcx,%rsi
  4105b6:	48 89 c7             	mov    %rax,%rdi
  4105b9:	e8 4b ff ff ff       	callq  410509 <_ZN2cvL4readERKNS_8FileNodeERii>
  4105be:	8b 45 fc             	mov    -0x4(%rbp),%eax
  4105c1:	85 c0                	test   %eax,%eax
  4105c3:	0f 95 c2             	setne  %dl
  4105c6:	48 8b 45 e0          	mov    -0x20(%rbp),%rax
  4105ca:	88 10                	mov    %dl,(%rax)
  4105cc:	c9                   	leaveq 
  4105cd:	c3                   	retq   

00000000004105ce <_ZN2cvL4readERKNS_8FileNodeERdd>:
  4105ce:	55                   	push   %rbp
  4105cf:	48 89 e5             	mov    %rsp,%rbp
  4105d2:	48 83 ec 20          	sub    $0x20,%rsp
  4105d6:	e8 25 fb ff ff       	callq  410100 <mcount@plt>
  4105db:	48 89 7d f8          	mov    %rdi,-0x8(%rbp)
  4105df:	48 89 75 f0          	mov    %rsi,-0x10(%rbp)
  4105e3:	f2 0f 11 45 e8       	movsd  %xmm0,-0x18(%rbp)
  4105e8:	48 8b 45 f8          	mov    -0x8(%rbp),%rax
  4105ec:	48 8b 40 08          	mov    0x8(%rax),%rax
  4105f0:	48 85 c0             	test   %rax,%rax
  4105f3:	74 58                	je     41064d <_ZN2cvL4readERKNS_8FileNodeERdd+0x7f>
  4105f5:	48 8b 45 f8          	mov    -0x8(%rbp),%rax
  4105f9:	48 8b 40 08          	mov    0x8(%rax),%rax
  4105fd:	8b 00                	mov    (%rax),%eax
  4105ff:	83 e0 07             	and    $0x7,%eax
  410602:	83 f8 01             	cmp    $0x1,%eax
  410605:	75 1a                	jne    410621 <_ZN2cvL4readERKNS_8FileNodeERdd+0x53>
  410607:	48 8b 45 f8          	mov    -0x8(%rbp),%rax
  41060b:	48 8b 40 08          	mov    0x8(%rax),%rax
  41060f:	8b 40 10             	mov    0x10(%rax),%eax
  410612:	f2 0f 2a c8          	cvtsi2sd %eax,%xmm1
  410616:	f2 0f 11 4d e0       	movsd  %xmm1,-0x20(%rbp)
  41061b:	48 8b 45 e0          	mov    -0x20(%rbp),%rax
  41061f:	eb 30                	jmp    410651 <_ZN2cvL4readERKNS_8FileNodeERdd+0x83>
  410621:	48 8b 45 f8          	mov    -0x8(%rbp),%rax
  410625:	48 8b 40 08          	mov    0x8(%rax),%rax
  410629:	8b 00                	mov    (%rax),%eax
  41062b:	83 e0 07             	and    $0x7,%eax
  41062e:	83 f8 02             	cmp    $0x2,%eax
  410631:	75 0e                	jne    410641 <_ZN2cvL4readERKNS_8FileNodeERdd+0x73>
  410633:	48 8b 45 f8          	mov    -0x8(%rbp),%rax
  410637:	48 8b 40 08          	mov    0x8(%rax),%rax
  41063b:	48 8b 40 10          	mov    0x10(%rax),%rax
  41063f:	eb 10                	jmp    410651 <_ZN2cvL4readERKNS_8FileNodeERdd+0x83>
  410641:	48 b8 9c 75 00 88 3c 	movabs $0x7e37e43c8800759c,%rax
  410648:	e4 37 7e 
  41064b:	eb 04                	jmp    410651 <_ZN2cvL4readERKNS_8FileNodeERdd+0x83>
  41064d:	48 8b 45 e8          	mov    -0x18(%rbp),%rax
  410651:	48 8b 55 f0          	mov    -0x10(%rbp),%rdx
  410655:	48 89 02             	mov    %rax,(%rdx)
  410658:	c9                   	leaveq 
  410659:	c3                   	retq   

000000000041065a <_ZN2cveqERKNS_16FileNodeIteratorES2_>:
  41065a:	55                   	push   %rbp
  41065b:	48 89 e5             	mov    %rsp,%rbp
  41065e:	48 83 ec 10          	sub    $0x10,%rsp
  410662:	e8 99 fa ff ff       	callq  410100 <mcount@plt>
  410667:	48 89 7d f8          	mov    %rdi,-0x8(%rbp)
  41066b:	48 89 75 f0          	mov    %rsi,-0x10(%rbp)
  41066f:	48 8b 45 f8          	mov    -0x8(%rbp),%rax
  410673:	48 8b 10             	mov    (%rax),%rdx
  410676:	48 8b 45 f0          	mov    -0x10(%rbp),%rax
  41067a:	48 8b 00             	mov    (%rax),%rax
  41067d:	48 39 c2             	cmp    %rax,%rdx
  410680:	75 46                	jne    4106c8 <_ZN2cveqERKNS_16FileNodeIteratorES2_+0x6e>
  410682:	48 8b 45 f8          	mov    -0x8(%rbp),%rax
  410686:	48 8b 50 08          	mov    0x8(%rax),%rdx
  41068a:	48 8b 45 f0          	mov    -0x10(%rbp),%rax
  41068e:	48 8b 40 08          	mov    0x8(%rax),%rax
  410692:	48 39 c2             	cmp    %rax,%rdx
  410695:	75 31                	jne    4106c8 <_ZN2cveqERKNS_16FileNodeIteratorES2_+0x6e>
  410697:	48 8b 45 f8          	mov    -0x8(%rbp),%rax
  41069b:	48 8b 50 28          	mov    0x28(%rax),%rdx
  41069f:	48 8b 45 f0          	mov    -0x10(%rbp),%rax
  4106a3:	48 8b 40 28          	mov    0x28(%rax),%rax
  4106a7:	48 39 c2             	cmp    %rax,%rdx
  4106aa:	75 1c                	jne    4106c8 <_ZN2cveqERKNS_16FileNodeIteratorES2_+0x6e>
  4106ac:	48 8b 45 f8          	mov    -0x8(%rbp),%rax
  4106b0:	48 8b 50 50          	mov    0x50(%rax),%rdx
  4106b4:	48 8b 45 f0          	mov    -0x10(%rbp),%rax
  4106b8:	48 8b 40 50          	mov    0x50(%rax),%rax
  4106bc:	48 39 c2             	cmp    %rax,%rdx
  4106bf:	75 07                	jne    4106c8 <_ZN2cveqERKNS_16FileNodeIteratorES2_+0x6e>
  4106c1:	b8 01 00 00 00       	mov    $0x1,%eax
  4106c6:	eb 05                	jmp    4106cd <_ZN2cveqERKNS_16FileNodeIteratorES2_+0x73>
  4106c8:	b8 00 00 00 00       	mov    $0x0,%eax
  4106cd:	c9                   	leaveq 
  4106ce:	c3                   	retq   

00000000004106cf <_ZN2cvneERKNS_16FileNodeIteratorES2_>:
  4106cf:	55                   	push   %rbp
  4106d0:	48 89 e5             	mov    %rsp,%rbp
  4106d3:	48 83 ec 10          	sub    $0x10,%rsp
  4106d7:	e8 24 fa ff ff       	callq  410100 <mcount@plt>
  4106dc:	48 89 7d f8          	mov    %rdi,-0x8(%rbp)
  4106e0:	48 89 75 f0          	mov    %rsi,-0x10(%rbp)
  4106e4:	48 8b 55 f0          	mov    -0x10(%rbp),%rdx
  4106e8:	48 8b 45 f8          	mov    -0x8(%rbp),%rax
  4106ec:	48 89 d6             	mov    %rdx,%rsi
  4106ef:	48 89 c7             	mov    %rax,%rdi
  4106f2:	e8 63 ff ff ff       	callq  41065a <_ZN2cveqERKNS_16FileNodeIteratorES2_>
  4106f7:	83 f0 01             	xor    $0x1,%eax
  4106fa:	c9                   	leaveq 
  4106fb:	c3                   	retq   

00000000004106fc <_ZL15Magnitude_2_64fPKdS0_Pdi>:
  4106fc:	55                   	push   %rbp
  4106fd:	48 89 e5             	mov    %rsp,%rbp
  410700:	53                   	push   %rbx
  410701:	48 83 ec 58          	sub    $0x58,%rsp
  410705:	e8 f6 f9 ff ff       	callq  410100 <mcount@plt>
  41070a:	48 89 7d c8          	mov    %rdi,-0x38(%rbp)
  41070e:	48 89 75 c0          	mov    %rsi,-0x40(%rbp)
  410712:	48 89 55 b8          	mov    %rdx,-0x48(%rbp)
  410716:	89 4d b4             	mov    %ecx,-0x4c(%rbp)
  410719:	c7 45 dc 00 00 00 00 	movl   $0x0,-0x24(%rbp)
  410720:	eb 7c                	jmp    41079e <_ZL15Magnitude_2_64fPKdS0_Pdi+0xa2>
  410722:	8b 45 dc             	mov    -0x24(%rbp),%eax
  410725:	48 98                	cltq   
  410727:	48 8d 14 c5 00 00 00 	lea    0x0(,%rax,8),%rdx
  41072e:	00 
  41072f:	48 8b 45 c8          	mov    -0x38(%rbp),%rax
  410733:	48 01 d0             	add    %rdx,%rax
  410736:	48 8b 00             	mov    (%rax),%rax
  410739:	48 89 45 e0          	mov    %rax,-0x20(%rbp)
  41073d:	8b 45 dc             	mov    -0x24(%rbp),%eax
  410740:	48 98                	cltq   
  410742:	48 8d 14 c5 00 00 00 	lea    0x0(,%rax,8),%rdx
  410749:	00 
  41074a:	48 8b 45 c0          	mov    -0x40(%rbp),%rax
  41074e:	48 01 d0             	add    %rdx,%rax
  410751:	48 8b 00             	mov    (%rax),%rax
  410754:	48 89 45 e8          	mov    %rax,-0x18(%rbp)
  410758:	8b 45 dc             	mov    -0x24(%rbp),%eax
  41075b:	48 98                	cltq   
  41075d:	48 8d 14 c5 00 00 00 	lea    0x0(,%rax,8),%rdx
  410764:	00 
  410765:	48 8b 45 b8          	mov    -0x48(%rbp),%rax
  410769:	48 8d 1c 02          	lea    (%rdx,%rax,1),%rbx
  41076d:	f2 0f 10 45 e0       	movsd  -0x20(%rbp),%xmm0
  410772:	66 0f 28 c8          	movapd %xmm0,%xmm1
  410776:	f2 0f 59 4d e0       	mulsd  -0x20(%rbp),%xmm1
  41077b:	f2 0f 10 45 e8       	movsd  -0x18(%rbp),%xmm0
  410780:	f2 0f 59 45 e8       	mulsd  -0x18(%rbp),%xmm0
  410785:	f2 0f 58 c1          	addsd  %xmm1,%xmm0
  410789:	e8 22 f7 ff ff       	callq  40feb0 <sqrt@plt>
  41078e:	f2 0f 11 45 a8       	movsd  %xmm0,-0x58(%rbp)
  410793:	48 8b 45 a8          	mov    -0x58(%rbp),%rax
  410797:	48 89 03             	mov    %rax,(%rbx)
  41079a:	83 45 dc 01          	addl   $0x1,-0x24(%rbp)
  41079e:	8b 45 dc             	mov    -0x24(%rbp),%eax
  4107a1:	3b 45 b4             	cmp    -0x4c(%rbp),%eax
  4107a4:	0f 8c 78 ff ff ff    	jl     410722 <_ZL15Magnitude_2_64fPKdS0_Pdi+0x26>
  4107aa:	48 83 c4 58          	add    $0x58,%rsp
  4107ae:	5b                   	pop    %rbx
  4107af:	5d                   	pop    %rbp
  4107b0:	c3                   	retq   

00000000004107b1 <_ZL15Magnitude_2_32fPKfS0_Pfi>:
  4107b1:	55                   	push   %rbp
  4107b2:	48 89 e5             	mov    %rsp,%rbp
  4107b5:	53                   	push   %rbx
  4107b6:	48 83 ec 38          	sub    $0x38,%rsp
  4107ba:	e8 41 f9 ff ff       	callq  410100 <mcount@plt>
  4107bf:	48 89 7d d8          	mov    %rdi,-0x28(%rbp)
  4107c3:	48 89 75 d0          	mov    %rsi,-0x30(%rbp)
  4107c7:	48 89 55 c8          	mov    %rdx,-0x38(%rbp)
  4107cb:	89 4d c4             	mov    %ecx,-0x3c(%rbp)
  4107ce:	c7 45 e4 00 00 00 00 	movl   $0x0,-0x1c(%rbp)
  4107d5:	eb 75                	jmp    41084c <_ZL15Magnitude_2_32fPKfS0_Pfi+0x9b>
  4107d7:	8b 45 e4             	mov    -0x1c(%rbp),%eax
  4107da:	48 98                	cltq   
  4107dc:	48 8d 14 85 00 00 00 	lea    0x0(,%rax,4),%rdx
  4107e3:	00 
  4107e4:	48 8b 45 d8          	mov    -0x28(%rbp),%rax
  4107e8:	48 01 d0             	add    %rdx,%rax
  4107eb:	8b 00                	mov    (%rax),%eax
  4107ed:	89 45 e8             	mov    %eax,-0x18(%rbp)
  4107f0:	8b 45 e4             	mov    -0x1c(%rbp),%eax
  4107f3:	48 98                	cltq   
  4107f5:	48 8d 14 85 00 00 00 	lea    0x0(,%rax,4),%rdx
  4107fc:	00 
  4107fd:	48 8b 45 d0          	mov    -0x30(%rbp),%rax
  410801:	48 01 d0             	add    %rdx,%rax
  410804:	8b 00                	mov    (%rax),%eax
  410806:	89 45 ec             	mov    %eax,-0x14(%rbp)
  410809:	8b 45 e4             	mov    -0x1c(%rbp),%eax
  41080c:	48 98                	cltq   
  41080e:	48 8d 14 85 00 00 00 	lea    0x0(,%rax,4),%rdx
  410815:	00 
  410816:	48 8b 45 c8          	mov    -0x38(%rbp),%rax
  41081a:	48 8d 1c 02          	lea    (%rdx,%rax,1),%rbx
  41081e:	f3 0f 10 45 e8       	movss  -0x18(%rbp),%xmm0
  410823:	0f 28 c8             	movaps %xmm0,%xmm1
  410826:	f3 0f 59 4d e8       	mulss  -0x18(%rbp),%xmm1
  41082b:	f3 0f 10 45 ec       	movss  -0x14(%rbp),%xmm0
  410830:	f3 0f 59 45 ec       	mulss  -0x14(%rbp),%xmm0
  410835:	f3 0f 58 c1          	addss  %xmm1,%xmm0
  410839:	e8 45 bd 00 00       	callq  41c583 <_ZSt4sqrtf>
  41083e:	f3 0f 11 45 c0       	movss  %xmm0,-0x40(%rbp)
  410843:	8b 45 c0             	mov    -0x40(%rbp),%eax
  410846:	89 03                	mov    %eax,(%rbx)
  410848:	83 45 e4 01          	addl   $0x1,-0x1c(%rbp)
  41084c:	8b 45 e4             	mov    -0x1c(%rbp),%eax
  41084f:	3b 45 c4             	cmp    -0x3c(%rbp),%eax
  410852:	7c 83                	jl     4107d7 <_ZL15Magnitude_2_32fPKfS0_Pfi+0x26>
  410854:	48 83 c4 38          	add    $0x38,%rsp
  410858:	5b                   	pop    %rbx
  410859:	5d                   	pop    %rbp
  41085a:	c3                   	retq   

000000000041085b <_ZL15FastAtan2_2_32fPKfS0_Pfib>:
  41085b:	55                   	push   %rbp
  41085c:	48 89 e5             	mov    %rsp,%rbp
  41085f:	48 83 ec 60          	sub    $0x60,%rsp
  410863:	e8 98 f8 ff ff       	callq  410100 <mcount@plt>
  410868:	48 89 7d c8          	mov    %rdi,-0x38(%rbp)
  41086c:	48 89 75 c0          	mov    %rsi,-0x40(%rbp)
  410870:	48 89 55 b8          	mov    %rdx,-0x48(%rbp)
  410874:	89 4d b4             	mov    %ecx,-0x4c(%rbp)
  410877:	44 89 c0             	mov    %r8d,%eax
  41087a:	88 45 b0             	mov    %al,-0x50(%rbp)
  41087d:	c7 45 dc 00 00 00 00 	movl   $0x0,-0x24(%rbp)
  410884:	80 7d b0 00          	cmpb   $0x0,-0x50(%rbp)
  410888:	74 08                	je     410892 <_ZL15FastAtan2_2_32fPKfS0_Pfib+0x37>
  41088a:	8b 05 10 f8 01 00    	mov    0x1f810(%rip),%eax        # 4300a0 <_ZZN2cv9partitionINS_5Rect_IiEE13SimilarRects2EEiRKSt6vectorIT_SaIS5_EERS4_IiSaIiEET0_E19__PRETTY_FUNCTION__+0xa0>
  410890:	eb 06                	jmp    410898 <_ZL15FastAtan2_2_32fPKfS0_Pfib+0x3d>
  410892:	8b 05 0c f8 01 00    	mov    0x1f80c(%rip),%eax        # 4300a4 <_ZZN2cv9partitionINS_5Rect_IiEE13SimilarRects2EEiRKSt6vectorIT_SaIS5_EERS4_IiSaIiEET0_E19__PRETTY_FUNCTION__+0xa4>
  410898:	89 45 e4             	mov    %eax,-0x1c(%rbp)
  41089b:	e9 d7 01 00 00       	jmpq   410a77 <_ZL15FastAtan2_2_32fPKfS0_Pfib+0x21c>
  4108a0:	8b 45 dc             	mov    -0x24(%rbp),%eax
  4108a3:	48 98                	cltq   
  4108a5:	48 8d 14 85 00 00 00 	lea    0x0(,%rax,4),%rdx
  4108ac:	00 
  4108ad:	48 8b 45 c0          	mov    -0x40(%rbp),%rax
  4108b1:	48 01 d0             	add    %rdx,%rax
  4108b4:	8b 00                	mov    (%rax),%eax
  4108b6:	89 45 e8             	mov    %eax,-0x18(%rbp)
  4108b9:	8b 45 dc             	mov    -0x24(%rbp),%eax
  4108bc:	48 98                	cltq   
  4108be:	48 8d 14 85 00 00 00 	lea    0x0(,%rax,4),%rdx
  4108c5:	00 
  4108c6:	48 8b 45 c8          	mov    -0x38(%rbp),%rax
  4108ca:	48 01 d0             	add    %rdx,%rax
  4108cd:	8b 00                	mov    (%rax),%eax
  4108cf:	89 45 ec             	mov    %eax,-0x14(%rbp)
  4108d2:	8b 45 e8             	mov    -0x18(%rbp),%eax
  4108d5:	89 45 ac             	mov    %eax,-0x54(%rbp)
  4108d8:	f3 0f 10 45 ac       	movss  -0x54(%rbp),%xmm0
  4108dd:	e8 39 bc 00 00       	callq  41c51b <_ZSt3absf>
  4108e2:	f3 0f 11 45 ac       	movss  %xmm0,-0x54(%rbp)
  4108e7:	8b 45 ac             	mov    -0x54(%rbp),%eax
  4108ea:	89 45 f0             	mov    %eax,-0x10(%rbp)
  4108ed:	8b 45 ec             	mov    -0x14(%rbp),%eax
  4108f0:	89 45 ac             	mov    %eax,-0x54(%rbp)
  4108f3:	f3 0f 10 45 ac       	movss  -0x54(%rbp),%xmm0
  4108f8:	e8 1e bc 00 00       	callq  41c51b <_ZSt3absf>
  4108fd:	f3 0f 11 45 ac       	movss  %xmm0,-0x54(%rbp)
  410902:	8b 45 ac             	mov    -0x54(%rbp),%eax
  410905:	89 45 f4             	mov    %eax,-0xc(%rbp)
  410908:	f3 0f 10 45 f0       	movss  -0x10(%rbp),%xmm0
  41090d:	0f 2e 45 f4          	ucomiss -0xc(%rbp),%xmm0
  410911:	72 7f                	jb     410992 <_ZL15FastAtan2_2_32fPKfS0_Pfib+0x137>
  410913:	f3 0f 10 4d f0       	movss  -0x10(%rbp),%xmm1
  410918:	f3 0f 10 05 88 f7 01 	movss  0x1f788(%rip),%xmm0        # 4300a8 <_ZZN2cv9partitionINS_5Rect_IiEE13SimilarRects2EEiRKSt6vectorIT_SaIS5_EERS4_IiSaIiEET0_E19__PRETTY_FUNCTION__+0xa8>
  41091f:	00 
  410920:	f3 0f 58 c1          	addss  %xmm1,%xmm0
  410924:	f3 0f 10 4d f4       	movss  -0xc(%rbp),%xmm1
  410929:	f3 0f 5e c8          	divss  %xmm0,%xmm1
  41092d:	0f 28 c1             	movaps %xmm1,%xmm0
  410930:	f3 0f 11 45 f8       	movss  %xmm0,-0x8(%rbp)
  410935:	f3 0f 10 45 f8       	movss  -0x8(%rbp),%xmm0
  41093a:	f3 0f 59 45 f8       	mulss  -0x8(%rbp),%xmm0
  41093f:	f3 0f 11 45 fc       	movss  %xmm0,-0x4(%rbp)
  410944:	f3 0f 10 4d fc       	movss  -0x4(%rbp),%xmm1
  410949:	f3 0f 10 05 5b f7 01 	movss  0x1f75b(%rip),%xmm0        # 4300ac <_ZZN2cv9partitionINS_5Rect_IiEE13SimilarRects2EEiRKSt6vectorIT_SaIS5_EERS4_IiSaIiEET0_E19__PRETTY_FUNCTION__+0xac>
  410950:	00 
  410951:	f3 0f 59 c1          	mulss  %xmm1,%xmm0
  410955:	f3 0f 10 0d 53 f7 01 	movss  0x1f753(%rip),%xmm1        # 4300b0 <_ZZN2cv9partitionINS_5Rect_IiEE13SimilarRects2EEiRKSt6vectorIT_SaIS5_EERS4_IiSaIiEET0_E19__PRETTY_FUNCTION__+0xb0>
  41095c:	00 
  41095d:	f3 0f 58 c1          	addss  %xmm1,%xmm0
  410961:	f3 0f 59 45 fc       	mulss  -0x4(%rbp),%xmm0
  410966:	f3 0f 10 0d 46 f7 01 	movss  0x1f746(%rip),%xmm1        # 4300b4 <_ZZN2cv9partitionINS_5Rect_IiEE13SimilarRects2EEiRKSt6vectorIT_SaIS5_EERS4_IiSaIiEET0_E19__PRETTY_FUNCTION__+0xb4>
  41096d:	00 
  41096e:	f3 0f 5c c1          	subss  %xmm1,%xmm0
  410972:	f3 0f 59 45 fc       	mulss  -0x4(%rbp),%xmm0
  410977:	f3 0f 10 0d 39 f7 01 	movss  0x1f739(%rip),%xmm1        # 4300b8 <_ZZN2cv9partitionINS_5Rect_IiEE13SimilarRects2EEiRKSt6vectorIT_SaIS5_EERS4_IiSaIiEET0_E19__PRETTY_FUNCTION__+0xb8>
  41097e:	00 
  41097f:	f3 0f 58 c1          	addss  %xmm1,%xmm0
  410983:	f3 0f 59 45 f8       	mulss  -0x8(%rbp),%xmm0
  410988:	f3 0f 11 45 e0       	movss  %xmm0,-0x20(%rbp)
  41098d:	e9 89 00 00 00       	jmpq   410a1b <_ZL15FastAtan2_2_32fPKfS0_Pfib+0x1c0>
  410992:	f3 0f 10 4d f4       	movss  -0xc(%rbp),%xmm1
  410997:	f3 0f 10 05 09 f7 01 	movss  0x1f709(%rip),%xmm0        # 4300a8 <_ZZN2cv9partitionINS_5Rect_IiEE13SimilarRects2EEiRKSt6vectorIT_SaIS5_EERS4_IiSaIiEET0_E19__PRETTY_FUNCTION__+0xa8>
  41099e:	00 
  41099f:	f3 0f 58 c1          	addss  %xmm1,%xmm0
  4109a3:	f3 0f 10 4d f0       	movss  -0x10(%rbp),%xmm1
  4109a8:	f3 0f 5e c8          	divss  %xmm0,%xmm1
  4109ac:	0f 28 c1             	movaps %xmm1,%xmm0
  4109af:	f3 0f 11 45 f8       	movss  %xmm0,-0x8(%rbp)
  4109b4:	f3 0f 10 45 f8       	movss  -0x8(%rbp),%xmm0
  4109b9:	f3 0f 59 45 f8       	mulss  -0x8(%rbp),%xmm0
  4109be:	f3 0f 11 45 fc       	movss  %xmm0,-0x4(%rbp)
  4109c3:	f3 0f 10 4d fc       	movss  -0x4(%rbp),%xmm1
  4109c8:	f3 0f 10 05 dc f6 01 	movss  0x1f6dc(%rip),%xmm0        # 4300ac <_ZZN2cv9partitionINS_5Rect_IiEE13SimilarRects2EEiRKSt6vectorIT_SaIS5_EERS4_IiSaIiEET0_E19__PRETTY_FUNCTION__+0xac>
  4109cf:	00 
  4109d0:	f3 0f 59 c1          	mulss  %xmm1,%xmm0
  4109d4:	f3 0f 10 0d d4 f6 01 	movss  0x1f6d4(%rip),%xmm1        # 4300b0 <_ZZN2cv9partitionINS_5Rect_IiEE13SimilarRects2EEiRKSt6vectorIT_SaIS5_EERS4_IiSaIiEET0_E19__PRETTY_FUNCTION__+0xb0>
  4109db:	00 
  4109dc:	f3 0f 58 c1          	addss  %xmm1,%xmm0
  4109e0:	f3 0f 59 45 fc       	mulss  -0x4(%rbp),%xmm0
  4109e5:	f3 0f 10 0d c7 f6 01 	movss  0x1f6c7(%rip),%xmm1        # 4300b4 <_ZZN2cv9partitionINS_5Rect_IiEE13SimilarRects2EEiRKSt6vectorIT_SaIS5_EERS4_IiSaIiEET0_E19__PRETTY_FUNCTION__+0xb4>
  4109ec:	00 
  4109ed:	f3 0f 5c c1          	subss  %xmm1,%xmm0
  4109f1:	f3 0f 59 45 fc       	mulss  -0x4(%rbp),%xmm0
  4109f6:	f3 0f 10 0d ba f6 01 	movss  0x1f6ba(%rip),%xmm1        # 4300b8 <_ZZN2cv9partitionINS_5Rect_IiEE13SimilarRects2EEiRKSt6vectorIT_SaIS5_EERS4_IiSaIiEET0_E19__PRETTY_FUNCTION__+0xb8>
  4109fd:	00 
  4109fe:	f3 0f 58 c1          	addss  %xmm1,%xmm0
  410a02:	f3 0f 59 45 f8       	mulss  -0x8(%rbp),%xmm0
  410a07:	f3 0f 10 0d ad f6 01 	movss  0x1f6ad(%rip),%xmm1        # 4300bc <_ZZN2cv9partitionINS_5Rect_IiEE13SimilarRects2EEiRKSt6vectorIT_SaIS5_EERS4_IiSaIiEET0_E19__PRETTY_FUNCTION__+0xbc>
  410a0e:	00 
  410a0f:	f3 0f 5c c8          	subss  %xmm0,%xmm1
  410a13:	0f 28 c1             	movaps %xmm1,%xmm0
  410a16:	f3 0f 11 45 e0       	movss  %xmm0,-0x20(%rbp)
  410a1b:	0f 57 c0             	xorps  %xmm0,%xmm0
  410a1e:	0f 2e 45 e8          	ucomiss -0x18(%rbp),%xmm0
  410a22:	76 12                	jbe    410a36 <_ZL15FastAtan2_2_32fPKfS0_Pfib+0x1db>
  410a24:	f3 0f 10 05 98 f6 01 	movss  0x1f698(%rip),%xmm0        # 4300c4 <_ZZN2cv9partitionINS_5Rect_IiEE13SimilarRects2EEiRKSt6vectorIT_SaIS5_EERS4_IiSaIiEET0_E19__PRETTY_FUNCTION__+0xc4>
  410a2b:	00 
  410a2c:	f3 0f 5c 45 e0       	subss  -0x20(%rbp),%xmm0
  410a31:	f3 0f 11 45 e0       	movss  %xmm0,-0x20(%rbp)
  410a36:	0f 57 c0             	xorps  %xmm0,%xmm0
  410a39:	0f 2e 45 ec          	ucomiss -0x14(%rbp),%xmm0
  410a3d:	76 12                	jbe    410a51 <_ZL15FastAtan2_2_32fPKfS0_Pfib+0x1f6>
  410a3f:	f3 0f 10 05 81 f6 01 	movss  0x1f681(%rip),%xmm0        # 4300c8 <_ZZN2cv9partitionINS_5Rect_IiEE13SimilarRects2EEiRKSt6vectorIT_SaIS5_EERS4_IiSaIiEET0_E19__PRETTY_FUNCTION__+0xc8>
  410a46:	00 
  410a47:	f3 0f 5c 45 e0       	subss  -0x20(%rbp),%xmm0
  410a4c:	f3 0f 11 45 e0       	movss  %xmm0,-0x20(%rbp)
  410a51:	8b 45 dc             	mov    -0x24(%rbp),%eax
  410a54:	48 98                	cltq   
  410a56:	48 8d 14 85 00 00 00 	lea    0x0(,%rax,4),%rdx
  410a5d:	00 
  410a5e:	48 8b 45 b8          	mov    -0x48(%rbp),%rax
  410a62:	48 01 d0             	add    %rdx,%rax
  410a65:	f3 0f 10 45 e0       	movss  -0x20(%rbp),%xmm0
  410a6a:	f3 0f 59 45 e4       	mulss  -0x1c(%rbp),%xmm0
  410a6f:	f3 0f 11 00          	movss  %xmm0,(%rax)
  410a73:	83 45 dc 01          	addl   $0x1,-0x24(%rbp)
  410a77:	8b 45 dc             	mov    -0x24(%rbp),%eax
  410a7a:	3b 45 b4             	cmp    -0x4c(%rbp),%eax
  410a7d:	0f 8c 1d fe ff ff    	jl     4108a0 <_ZL15FastAtan2_2_32fPKfS0_Pfib+0x45>
  410a83:	c9                   	leaveq 
  410a84:	c3                   	retq   

0000000000410a85 <_Z13cartToPolar_2RKN2cv11_InputArrayES2_RKNS_12_OutputArrayES5_b>:
  410a85:	55                   	push   %rbp
  410a86:	48 89 e5             	mov    %rsp,%rbp
  410a89:	53                   	push   %rbx
  410a8a:	48 81 ec 68 13 00 00 	sub    $0x1368,%rsp
  410a91:	e8 6a f6 ff ff       	callq  410100 <mcount@plt>
  410a96:	48 89 bd b8 ec ff ff 	mov    %rdi,-0x1348(%rbp)
  410a9d:	48 89 b5 b0 ec ff ff 	mov    %rsi,-0x1350(%rbp)
  410aa4:	48 89 95 a8 ec ff ff 	mov    %rdx,-0x1358(%rbp)
  410aab:	48 89 8d a0 ec ff ff 	mov    %rcx,-0x1360(%rbp)
  410ab2:	44 89 c0             	mov    %r8d,%eax
  410ab5:	88 85 9c ec ff ff    	mov    %al,-0x1364(%rbp)
  410abb:	48 8b 85 b8 ec ff ff 	mov    -0x1348(%rbp),%rax
  410ac2:	48 8b 00             	mov    (%rax),%rax
  410ac5:	48 8b 00             	mov    (%rax),%rax
  410ac8:	48 8d 8d 30 ee ff ff 	lea    -0x11d0(%rbp),%rcx
  410acf:	48 8b b5 b8 ec ff ff 	mov    -0x1348(%rbp),%rsi
  410ad6:	ba ff ff ff ff       	mov    $0xffffffff,%edx
  410adb:	48 89 cf             	mov    %rcx,%rdi
  410ade:	ff d0                	callq  *%rax
  410ae0:	48 8b 85 b0 ec ff ff 	mov    -0x1350(%rbp),%rax
  410ae7:	48 8b 00             	mov    (%rax),%rax
  410aea:	48 8b 00             	mov    (%rax),%rax
  410aed:	48 8d 8d 90 ee ff ff 	lea    -0x1170(%rbp),%rcx
  410af4:	48 8b b5 b0 ec ff ff 	mov    -0x1350(%rbp),%rsi
  410afb:	ba ff ff ff ff       	mov    $0xffffffff,%edx
  410b00:	48 89 cf             	mov    %rcx,%rdi
  410b03:	ff d0                	callq  *%rax
  410b05:	48 8d 85 30 ee ff ff 	lea    -0x11d0(%rbp),%rax
  410b0c:	48 89 c7             	mov    %rax,%rdi
  410b0f:	e8 2e c7 00 00       	callq  41d242 <_ZNK2cv3Mat4typeEv>
  410b14:	89 85 d0 ec ff ff    	mov    %eax,-0x1330(%rbp)
  410b1a:	48 8d 85 30 ee ff ff 	lea    -0x11d0(%rbp),%rax
  410b21:	48 89 c7             	mov    %rax,%rdi
  410b24:	e8 37 c7 00 00       	callq  41d260 <_ZNK2cv3Mat5depthEv>
  410b29:	89 85 d4 ec ff ff    	mov    %eax,-0x132c(%rbp)
  410b2f:	48 8d 85 30 ee ff ff 	lea    -0x11d0(%rbp),%rax
  410b36:	48 89 c7             	mov    %rax,%rdi
  410b39:	e8 3e c7 00 00       	callq  41d27c <_ZNK2cv3Mat8channelsEv>
  410b3e:	89 85 d8 ec ff ff    	mov    %eax,-0x1328(%rbp)
  410b44:	48 8d 85 90 ee ff ff 	lea    -0x1170(%rbp),%rax
  410b4b:	48 8d 50 40          	lea    0x40(%rax),%rdx
  410b4f:	48 8d 85 30 ee ff ff 	lea    -0x11d0(%rbp),%rax
  410b56:	48 83 c0 40          	add    $0x40,%rax
  410b5a:	48 89 d6             	mov    %rdx,%rsi
  410b5d:	48 89 c7             	mov    %rax,%rdi
  410b60:	e8 ed c7 00 00       	callq  41d352 <_ZNK2cv3Mat5MSizeeqERKS1_>
  410b65:	84 c0                	test   %al,%al
  410b67:	74 30                	je     410b99 <_Z13cartToPolar_2RKN2cv11_InputArrayES2_RKNS_12_OutputArrayES5_b+0x114>
  410b69:	48 8d 85 90 ee ff ff 	lea    -0x1170(%rbp),%rax
  410b70:	48 89 c7             	mov    %rax,%rdi
  410b73:	e8 ca c6 00 00       	callq  41d242 <_ZNK2cv3Mat4typeEv>
  410b78:	3b 85 d0 ec ff ff    	cmp    -0x1330(%rbp),%eax
  410b7e:	75 19                	jne    410b99 <_Z13cartToPolar_2RKN2cv11_InputArrayES2_RKNS_12_OutputArrayES5_b+0x114>
  410b80:	83 bd d4 ec ff ff 05 	cmpl   $0x5,-0x132c(%rbp)
  410b87:	74 09                	je     410b92 <_Z13cartToPolar_2RKN2cv11_InputArrayES2_RKNS_12_OutputArrayES5_b+0x10d>
  410b89:	83 bd d4 ec ff ff 06 	cmpl   $0x6,-0x132c(%rbp)
  410b90:	75 07                	jne    410b99 <_Z13cartToPolar_2RKN2cv11_InputArrayES2_RKNS_12_OutputArrayES5_b+0x114>
  410b92:	b8 01 00 00 00       	mov    $0x1,%eax
  410b97:	eb 05                	jmp    410b9e <_Z13cartToPolar_2RKN2cv11_InputArrayES2_RKNS_12_OutputArrayES5_b+0x119>
  410b99:	b8 00 00 00 00       	mov    $0x0,%eax
  410b9e:	84 c0                	test   %al,%al
  410ba0:	0f 85 28 01 00 00    	jne    410cce <_Z13cartToPolar_2RKN2cv11_InputArrayES2_RKNS_12_OutputArrayES5_b+0x249>
  410ba6:	48 8d 85 b0 ef ff ff 	lea    -0x1050(%rbp),%rax
  410bad:	48 89 c7             	mov    %rax,%rdi
  410bb0:	e8 ab f5 ff ff       	callq  410160 <_ZNSaIcEC1Ev@plt>
  410bb5:	48 8d 95 b0 ef ff ff 	lea    -0x1050(%rbp),%rdx
  410bbc:	48 8d 85 00 ed ff ff 	lea    -0x1300(%rbp),%rax
  410bc3:	be 19 9d 42 00       	mov    $0x429d19,%esi
  410bc8:	48 89 c7             	mov    %rax,%rdi
  410bcb:	e8 c0 f6 ff ff       	callq  410290 <_ZNSsC1EPKcRKSaIcE@plt>
  410bd0:	48 8d 85 50 ef ff ff 	lea    -0x10b0(%rbp),%rax
  410bd7:	48 89 c7             	mov    %rax,%rdi
  410bda:	e8 81 f5 ff ff       	callq  410160 <_ZNSaIcEC1Ev@plt>
  410bdf:	48 8d 95 50 ef ff ff 	lea    -0x10b0(%rbp),%rdx
  410be6:	48 8d 85 f0 ec ff ff 	lea    -0x1310(%rbp),%rax
  410bed:	be 24 a3 42 00       	mov    $0x42a324,%esi
  410bf2:	48 89 c7             	mov    %rax,%rdi
  410bf5:	e8 96 f6 ff ff       	callq  410290 <_ZNSsC1EPKcRKSaIcE@plt>
  410bfa:	48 8d 85 f0 ee ff ff 	lea    -0x1110(%rbp),%rax
  410c01:	48 89 c7             	mov    %rax,%rdi
  410c04:	e8 57 f5 ff ff       	callq  410160 <_ZNSaIcEC1Ev@plt>
  410c09:	48 8d 95 f0 ee ff ff 	lea    -0x1110(%rbp),%rdx
  410c10:	48 8d 85 e0 ec ff ff 	lea    -0x1320(%rbp),%rax
  410c17:	be 50 9d 42 00       	mov    $0x429d50,%esi
  410c1c:	48 89 c7             	mov    %rax,%rdi
  410c1f:	e8 6c f6 ff ff       	callq  410290 <_ZNSsC1EPKcRKSaIcE@plt>
  410c24:	48 8d b5 00 ed ff ff 	lea    -0x1300(%rbp),%rsi
  410c2b:	48 8d 8d f0 ec ff ff 	lea    -0x1310(%rbp),%rcx
  410c32:	48 8d 95 e0 ec ff ff 	lea    -0x1320(%rbp),%rdx
  410c39:	48 8d 85 b0 ed ff ff 	lea    -0x1250(%rbp),%rax
  410c40:	41 b9 6c 00 00 00    	mov    $0x6c,%r9d
  410c46:	49 89 f0             	mov    %rsi,%r8
  410c49:	be 29 ff ff ff       	mov    $0xffffff29,%esi
  410c4e:	48 89 c7             	mov    %rax,%rdi
  410c51:	e8 9a f2 ff ff       	callq  40fef0 <_ZN2cv9ExceptionC1EiRKSsS2_S2_i@plt>
  410c56:	48 8d 85 b0 ed ff ff 	lea    -0x1250(%rbp),%rax
  410c5d:	48 89 c7             	mov    %rax,%rdi
  410c60:	e8 fb f2 ff ff       	callq  40ff60 <_ZN2cv5errorERKNS_9ExceptionE@plt>
  410c65:	48 8d 85 b0 ed ff ff 	lea    -0x1250(%rbp),%rax
  410c6c:	48 89 c7             	mov    %rax,%rdi
  410c6f:	e8 bc f3 ff ff       	callq  410030 <_ZN2cv9ExceptionD1Ev@plt>
  410c74:	48 8d 85 e0 ec ff ff 	lea    -0x1320(%rbp),%rax
  410c7b:	48 89 c7             	mov    %rax,%rdi
  410c7e:	e8 fd f5 ff ff       	callq  410280 <_ZNSsD1Ev@plt>
  410c83:	48 8d 85 f0 ee ff ff 	lea    -0x1110(%rbp),%rax
  410c8a:	48 89 c7             	mov    %rax,%rdi
  410c8d:	e8 1e f6 ff ff       	callq  4102b0 <_ZNSaIcED1Ev@plt>
  410c92:	48 8d 85 f0 ec ff ff 	lea    -0x1310(%rbp),%rax
  410c99:	48 89 c7             	mov    %rax,%rdi
  410c9c:	e8 df f5 ff ff       	callq  410280 <_ZNSsD1Ev@plt>
  410ca1:	48 8d 85 50 ef ff ff 	lea    -0x10b0(%rbp),%rax
  410ca8:	48 89 c7             	mov    %rax,%rdi
  410cab:	e8 00 f6 ff ff       	callq  4102b0 <_ZNSaIcED1Ev@plt>
  410cb0:	48 8d 85 00 ed ff ff 	lea    -0x1300(%rbp),%rax
  410cb7:	48 89 c7             	mov    %rax,%rdi
  410cba:	e8 c1 f5 ff ff       	callq  410280 <_ZNSsD1Ev@plt>
  410cbf:	48 8d 85 b0 ef ff ff 	lea    -0x1050(%rbp),%rax
  410cc6:	48 89 c7             	mov    %rax,%rdi
  410cc9:	e8 e2 f5 ff ff       	callq  4102b0 <_ZNSaIcED1Ev@plt>
  410cce:	48 8b 85 a8 ec ff ff 	mov    -0x1358(%rbp),%rax
  410cd5:	48 8b 00             	mov    (%rax),%rax
  410cd8:	48 05 90 00 00 00    	add    $0x90,%rax
  410cde:	48 8b 18             	mov    (%rax),%rbx
  410ce1:	48 8d 85 30 ee ff ff 	lea    -0x11d0(%rbp),%rax
  410ce8:	48 83 c0 40          	add    $0x40,%rax
  410cec:	48 89 c7             	mov    %rax,%rdi
  410cef:	e8 44 c6 00 00       	callq  41d338 <_ZNK2cv3Mat5MSizecvPKiEv>
  410cf4:	48 89 c2             	mov    %rax,%rdx
  410cf7:	8b b5 34 ee ff ff    	mov    -0x11cc(%rbp),%esi
  410cfd:	8b 8d d0 ec ff ff    	mov    -0x1330(%rbp),%ecx
  410d03:	48 8b 85 a8 ec ff ff 	mov    -0x1358(%rbp),%rax
  410d0a:	c7 04 24 00 00 00 00 	movl   $0x0,(%rsp)
  410d11:	41 b9 00 00 00 00    	mov    $0x0,%r9d
  410d17:	41 b8 ff ff ff ff    	mov    $0xffffffff,%r8d
  410d1d:	48 89 c7             	mov    %rax,%rdi
  410d20:	ff d3                	callq  *%rbx
  410d22:	48 8b 85 a0 ec ff ff 	mov    -0x1360(%rbp),%rax
  410d29:	48 8b 00             	mov    (%rax),%rax
  410d2c:	48 05 90 00 00 00    	add    $0x90,%rax
  410d32:	48 8b 18             	mov    (%rax),%rbx
  410d35:	48 8d 85 30 ee ff ff 	lea    -0x11d0(%rbp),%rax
  410d3c:	48 83 c0 40          	add    $0x40,%rax
  410d40:	48 89 c7             	mov    %rax,%rdi
  410d43:	e8 f0 c5 00 00       	callq  41d338 <_ZNK2cv3Mat5MSizecvPKiEv>
  410d48:	48 89 c2             	mov    %rax,%rdx
  410d4b:	8b b5 34 ee ff ff    	mov    -0x11cc(%rbp),%esi
  410d51:	8b 8d d0 ec ff ff    	mov    -0x1330(%rbp),%ecx
  410d57:	48 8b 85 a0 ec ff ff 	mov    -0x1360(%rbp),%rax
  410d5e:	c7 04 24 00 00 00 00 	movl   $0x0,(%rsp)
  410d65:	41 b9 00 00 00 00    	mov    $0x0,%r9d
  410d6b:	41 b8 ff ff ff ff    	mov    $0xffffffff,%r8d
  410d71:	48 89 c7             	mov    %rax,%rdi
  410d74:	ff d3                	callq  *%rbx
  410d76:	48 8b 85 a8 ec ff ff 	mov    -0x1358(%rbp),%rax
  410d7d:	48 8b 00             	mov    (%rax),%rax
  410d80:	48 8b 00             	mov    (%rax),%rax
  410d83:	48 8b b5 a8 ec ff ff 	mov    -0x1358(%rbp),%rsi
  410d8a:	48 8d 8d f0 ee ff ff 	lea    -0x1110(%rbp),%rcx
  410d91:	ba ff ff ff ff       	mov    $0xffffffff,%edx
  410d96:	48 89 cf             	mov    %rcx,%rdi
  410d99:	ff d0                	callq  *%rax
  410d9b:	48 8b 85 a0 ec ff ff 	mov    -0x1360(%rbp),%rax
  410da2:	48 8b 00             	mov    (%rax),%rax
  410da5:	48 8b 00             	mov    (%rax),%rax
  410da8:	48 8b b5 a0 ec ff ff 	mov    -0x1360(%rbp),%rsi
  410daf:	48 8d 8d 50 ef ff ff 	lea    -0x10b0(%rbp),%rcx
  410db6:	ba ff ff ff ff       	mov    $0xffffffff,%edx
  410dbb:	48 89 cf             	mov    %rcx,%rdi
  410dbe:	ff d0                	callq  *%rax
  410dc0:	48 c7 85 80 ed ff ff 	movq   $0x0,-0x1280(%rbp)
  410dc7:	00 00 00 00 
  410dcb:	48 c7 85 88 ed ff ff 	movq   $0x0,-0x1278(%rbp)
  410dd2:	00 00 00 00 
  410dd6:	48 c7 85 90 ed ff ff 	movq   $0x0,-0x1270(%rbp)
  410ddd:	00 00 00 00 
  410de1:	48 c7 85 98 ed ff ff 	movq   $0x0,-0x1268(%rbp)
  410de8:	00 00 00 00 
  410dec:	48 c7 85 a0 ed ff ff 	movq   $0x0,-0x1260(%rbp)
  410df3:	00 00 00 00 
  410df7:	48 8d 85 30 ee ff ff 	lea    -0x11d0(%rbp),%rax
  410dfe:	48 89 85 80 ed ff ff 	mov    %rax,-0x1280(%rbp)
  410e05:	48 8d 85 90 ee ff ff 	lea    -0x1170(%rbp),%rax
  410e0c:	48 89 85 88 ed ff ff 	mov    %rax,-0x1278(%rbp)
  410e13:	48 8d 85 f0 ee ff ff 	lea    -0x1110(%rbp),%rax
  410e1a:	48 89 85 90 ed ff ff 	mov    %rax,-0x1270(%rbp)
  410e21:	48 8d 85 50 ef ff ff 	lea    -0x10b0(%rbp),%rax
  410e28:	48 89 85 98 ed ff ff 	mov    %rax,-0x1268(%rbp)
  410e2f:	48 8d 95 60 ed ff ff 	lea    -0x12a0(%rbp),%rdx
  410e36:	48 8d b5 80 ed ff ff 	lea    -0x1280(%rbp),%rsi
  410e3d:	48 8d 85 f0 ed ff ff 	lea    -0x1210(%rbp),%rax
  410e44:	b9 ff ff ff ff       	mov    $0xffffffff,%ecx
  410e49:	48 89 c7             	mov    %rax,%rdi
  410e4c:	e8 bf f0 ff ff       	callq  40ff10 <_ZN2cv15NAryMatIteratorC1EPPKNS_3MatEPPhi@plt>
  410e51:	48 8d 85 b0 ef ff ff 	lea    -0x1050(%rbp),%rax
  410e58:	48 89 c7             	mov    %rax,%rdi
  410e5b:	e8 60 db 00 00       	callq  41e9c0 <_ZN2cv10AutoBufferIfLm1032EEC1Ev>
  410e60:	48 c7 85 50 ed ff ff 	movq   $0x0,-0x12b0(%rbp)
  410e67:	00 00 00 00 
  410e6b:	48 c7 85 58 ed ff ff 	movq   $0x0,-0x12a8(%rbp)
  410e72:	00 00 00 00 
  410e76:	48 8b 85 18 ee ff ff 	mov    -0x11e8(%rbp),%rax
  410e7d:	89 c2                	mov    %eax,%edx
  410e7f:	8b 85 d8 ec ff ff    	mov    -0x1328(%rbp),%eax
  410e85:	48 98                	cltq   
  410e87:	0f af c2             	imul   %edx,%eax
  410e8a:	89 85 c0 ec ff ff    	mov    %eax,-0x1340(%rbp)
  410e90:	8b 85 d8 ec ff ff    	mov    -0x1328(%rbp),%eax
  410e96:	05 ff 03 00 00       	add    $0x3ff,%eax
  410e9b:	99                   	cltd   
  410e9c:	f7 bd d8 ec ff ff    	idivl  -0x1328(%rbp)
  410ea2:	0f af 85 d8 ec ff ff 	imul   -0x1328(%rbp),%eax
  410ea9:	89 85 b0 ed ff ff    	mov    %eax,-0x1250(%rbp)
  410eaf:	48 8d 95 b0 ed ff ff 	lea    -0x1250(%rbp),%rdx
  410eb6:	48 8d 85 c0 ec ff ff 	lea    -0x1340(%rbp),%rax
  410ebd:	48 89 d6             	mov    %rdx,%rsi
  410ec0:	48 89 c7             	mov    %rax,%rdi
  410ec3:	e8 fd d7 00 00       	callq  41e6c5 <_ZSt3minIiERKT_S2_S2_>
  410ec8:	8b 00                	mov    (%rax),%eax
  410eca:	89 85 c4 ec ff ff    	mov    %eax,-0x133c(%rbp)
  410ed0:	48 8d 85 30 ee ff ff 	lea    -0x11d0(%rbp),%rax
  410ed7:	48 89 c7             	mov    %rax,%rdi
  410eda:	e8 2b c3 00 00       	callq  41d20a <_ZNK2cv3Mat9elemSize1Ev>
  410edf:	48 89 85 10 ed ff ff 	mov    %rax,-0x12f0(%rbp)
  410ee6:	83 bd d4 ec ff ff 06 	cmpl   $0x6,-0x132c(%rbp)
  410eed:	75 51                	jne    410f40 <_Z13cartToPolar_2RKN2cv11_InputArrayES2_RKNS_12_OutputArrayES5_b+0x4bb>
  410eef:	8b 85 c4 ec ff ff    	mov    -0x133c(%rbp),%eax
  410ef5:	01 c0                	add    %eax,%eax
  410ef7:	48 63 d0             	movslq %eax,%rdx
  410efa:	48 8d 85 b0 ef ff ff 	lea    -0x1050(%rbp),%rax
  410f01:	48 89 d6             	mov    %rdx,%rsi
  410f04:	48 89 c7             	mov    %rax,%rdi
  410f07:	e8 02 db 00 00       	callq  41ea0e <_ZN2cv10AutoBufferIfLm1032EE8allocateEm>
  410f0c:	48 8d 85 b0 ef ff ff 	lea    -0x1050(%rbp),%rax
  410f13:	48 89 c7             	mov    %rax,%rdi
  410f16:	e8 4f db 00 00       	callq  41ea6a <_ZN2cv10AutoBufferIfLm1032EEcvPfEv>
  410f1b:	48 89 85 50 ed ff ff 	mov    %rax,-0x12b0(%rbp)
  410f22:	48 8b 85 50 ed ff ff 	mov    -0x12b0(%rbp),%rax
  410f29:	8b 95 c4 ec ff ff    	mov    -0x133c(%rbp),%edx
  410f2f:	48 63 d2             	movslq %edx,%rdx
  410f32:	48 c1 e2 02          	shl    $0x2,%rdx
  410f36:	48 01 d0             	add    %rdx,%rax
  410f39:	48 89 85 58 ed ff ff 	mov    %rax,-0x12a8(%rbp)
  410f40:	48 c7 85 08 ed ff ff 	movq   $0x0,-0x12f8(%rbp)
  410f47:	00 00 00 00 
  410f4b:	e9 1b 03 00 00       	jmpq   41126b <_Z13cartToPolar_2RKN2cv11_InputArrayES2_RKNS_12_OutputArrayES5_b+0x7e6>
  410f50:	c7 85 c8 ec ff ff 00 	movl   $0x0,-0x1338(%rbp)
  410f57:	00 00 00 
  410f5a:	e9 e3 02 00 00       	jmpq   411242 <_Z13cartToPolar_2RKN2cv11_InputArrayES2_RKNS_12_OutputArrayES5_b+0x7bd>
  410f5f:	8b 85 c0 ec ff ff    	mov    -0x1340(%rbp),%eax
  410f65:	2b 85 c8 ec ff ff    	sub    -0x1338(%rbp),%eax
  410f6b:	89 85 b0 ed ff ff    	mov    %eax,-0x1250(%rbp)
  410f71:	48 8d 95 c4 ec ff ff 	lea    -0x133c(%rbp),%rdx
  410f78:	48 8d 85 b0 ed ff ff 	lea    -0x1250(%rbp),%rax
  410f7f:	48 89 d6             	mov    %rdx,%rsi
  410f82:	48 89 c7             	mov    %rax,%rdi
  410f85:	e8 3b d7 00 00       	callq  41e6c5 <_ZSt3minIiERKT_S2_S2_>
  410f8a:	8b 00                	mov    (%rax),%eax
  410f8c:	89 85 dc ec ff ff    	mov    %eax,-0x1324(%rbp)
  410f92:	83 bd d4 ec ff ff 05 	cmpl   $0x5,-0x132c(%rbp)
  410f99:	0f 85 8d 00 00 00    	jne    41102c <_Z13cartToPolar_2RKN2cv11_InputArrayES2_RKNS_12_OutputArrayES5_b+0x5a7>
  410f9f:	48 8b 85 60 ed ff ff 	mov    -0x12a0(%rbp),%rax
  410fa6:	48 89 85 18 ed ff ff 	mov    %rax,-0x12e8(%rbp)
  410fad:	48 8b 85 68 ed ff ff 	mov    -0x1298(%rbp),%rax
  410fb4:	48 89 85 20 ed ff ff 	mov    %rax,-0x12e0(%rbp)
  410fbb:	48 8b 85 70 ed ff ff 	mov    -0x1290(%rbp),%rax
  410fc2:	48 89 85 28 ed ff ff 	mov    %rax,-0x12d8(%rbp)
  410fc9:	48 8b 85 78 ed ff ff 	mov    -0x1288(%rbp),%rax
  410fd0:	48 89 85 30 ed ff ff 	mov    %rax,-0x12d0(%rbp)
  410fd7:	8b 8d dc ec ff ff    	mov    -0x1324(%rbp),%ecx
  410fdd:	48 8b 95 28 ed ff ff 	mov    -0x12d8(%rbp),%rdx
  410fe4:	48 8b b5 20 ed ff ff 	mov    -0x12e0(%rbp),%rsi
  410feb:	48 8b 85 18 ed ff ff 	mov    -0x12e8(%rbp),%rax
  410ff2:	48 89 c7             	mov    %rax,%rdi
  410ff5:	e8 b7 f7 ff ff       	callq  4107b1 <_ZL15Magnitude_2_32fPKfS0_Pfi>
  410ffa:	0f b6 bd 9c ec ff ff 	movzbl -0x1364(%rbp),%edi
  411001:	8b 8d dc ec ff ff    	mov    -0x1324(%rbp),%ecx
  411007:	48 8b 95 30 ed ff ff 	mov    -0x12d0(%rbp),%rdx
  41100e:	48 8b b5 18 ed ff ff 	mov    -0x12e8(%rbp),%rsi
  411015:	48 8b 85 20 ed ff ff 	mov    -0x12e0(%rbp),%rax
  41101c:	41 89 f8             	mov    %edi,%r8d
  41101f:	48 89 c7             	mov    %rax,%rdi
  411022:	e8 34 f8 ff ff       	callq  41085b <_ZL15FastAtan2_2_32fPKfS0_Pfib>
  411027:	e9 86 01 00 00       	jmpq   4111b2 <_Z13cartToPolar_2RKN2cv11_InputArrayES2_RKNS_12_OutputArrayES5_b+0x72d>
  41102c:	48 8b 85 60 ed ff ff 	mov    -0x12a0(%rbp),%rax
  411033:	48 89 85 38 ed ff ff 	mov    %rax,-0x12c8(%rbp)
  41103a:	48 8b 85 68 ed ff ff 	mov    -0x1298(%rbp),%rax
  411041:	48 89 85 40 ed ff ff 	mov    %rax,-0x12c0(%rbp)
  411048:	48 8b 85 78 ed ff ff 	mov    -0x1288(%rbp),%rax
  41104f:	48 89 85 48 ed ff ff 	mov    %rax,-0x12b8(%rbp)
  411056:	48 8b 95 70 ed ff ff 	mov    -0x1290(%rbp),%rdx
  41105d:	8b 8d dc ec ff ff    	mov    -0x1324(%rbp),%ecx
  411063:	48 8b b5 40 ed ff ff 	mov    -0x12c0(%rbp),%rsi
  41106a:	48 8b 85 38 ed ff ff 	mov    -0x12c8(%rbp),%rax
  411071:	48 89 c7             	mov    %rax,%rdi
  411074:	e8 83 f6 ff ff       	callq  4106fc <_ZL15Magnitude_2_64fPKdS0_Pdi>
  411079:	c7 85 cc ec ff ff 00 	movl   $0x0,-0x1334(%rbp)
  411080:	00 00 00 
  411083:	e9 8b 00 00 00       	jmpq   411113 <_Z13cartToPolar_2RKN2cv11_InputArrayES2_RKNS_12_OutputArrayES5_b+0x68e>
  411088:	48 8b 85 50 ed ff ff 	mov    -0x12b0(%rbp),%rax
  41108f:	8b 95 cc ec ff ff    	mov    -0x1334(%rbp),%edx
  411095:	48 63 d2             	movslq %edx,%rdx
  411098:	48 c1 e2 02          	shl    $0x2,%rdx
  41109c:	48 01 d0             	add    %rdx,%rax
  41109f:	8b 95 cc ec ff ff    	mov    -0x1334(%rbp),%edx
  4110a5:	48 63 d2             	movslq %edx,%rdx
  4110a8:	48 8d 0c d5 00 00 00 	lea    0x0(,%rdx,8),%rcx
  4110af:	00 
  4110b0:	48 8b 95 38 ed ff ff 	mov    -0x12c8(%rbp),%rdx
  4110b7:	48 01 ca             	add    %rcx,%rdx
  4110ba:	f2 0f 10 02          	movsd  (%rdx),%xmm0
  4110be:	66 0f 14 c0          	unpcklpd %xmm0,%xmm0
  4110c2:	66 0f 5a c0          	cvtpd2ps %xmm0,%xmm0
  4110c6:	f3 0f 11 00          	movss  %xmm0,(%rax)
  4110ca:	48 8b 85 58 ed ff ff 	mov    -0x12a8(%rbp),%rax
  4110d1:	8b 95 cc ec ff ff    	mov    -0x1334(%rbp),%edx
  4110d7:	48 63 d2             	movslq %edx,%rdx
  4110da:	48 c1 e2 02          	shl    $0x2,%rdx
  4110de:	48 01 d0             	add    %rdx,%rax
  4110e1:	8b 95 cc ec ff ff    	mov    -0x1334(%rbp),%edx
  4110e7:	48 63 d2             	movslq %edx,%rdx
  4110ea:	48 8d 0c d5 00 00 00 	lea    0x0(,%rdx,8),%rcx
  4110f1:	00 
  4110f2:	48 8b 95 40 ed ff ff 	mov    -0x12c0(%rbp),%rdx
  4110f9:	48 01 ca             	add    %rcx,%rdx
  4110fc:	f2 0f 10 02          	movsd  (%rdx),%xmm0
  411100:	66 0f 14 c0          	unpcklpd %xmm0,%xmm0
  411104:	66 0f 5a c0          	cvtpd2ps %xmm0,%xmm0
  411108:	f3 0f 11 00          	movss  %xmm0,(%rax)
  41110c:	83 85 cc ec ff ff 01 	addl   $0x1,-0x1334(%rbp)
  411113:	8b 85 cc ec ff ff    	mov    -0x1334(%rbp),%eax
  411119:	3b 85 dc ec ff ff    	cmp    -0x1324(%rbp),%eax
  41111f:	0f 8c 63 ff ff ff    	jl     411088 <_Z13cartToPolar_2RKN2cv11_InputArrayES2_RKNS_12_OutputArrayES5_b+0x603>
  411125:	0f b6 bd 9c ec ff ff 	movzbl -0x1364(%rbp),%edi
  41112c:	48 8b 95 50 ed ff ff 	mov    -0x12b0(%rbp),%rdx
  411133:	48 8b b5 50 ed ff ff 	mov    -0x12b0(%rbp),%rsi
  41113a:	48 8b 85 58 ed ff ff 	mov    -0x12a8(%rbp),%rax
  411141:	8b 8d dc ec ff ff    	mov    -0x1324(%rbp),%ecx
  411147:	41 89 f8             	mov    %edi,%r8d
  41114a:	48 89 c7             	mov    %rax,%rdi
  41114d:	e8 09 f7 ff ff       	callq  41085b <_ZL15FastAtan2_2_32fPKfS0_Pfib>
  411152:	c7 85 cc ec ff ff 00 	movl   $0x0,-0x1334(%rbp)
  411159:	00 00 00 
  41115c:	eb 46                	jmp    4111a4 <_Z13cartToPolar_2RKN2cv11_InputArrayES2_RKNS_12_OutputArrayES5_b+0x71f>
  41115e:	8b 85 cc ec ff ff    	mov    -0x1334(%rbp),%eax
  411164:	48 98                	cltq   
  411166:	48 8d 14 c5 00 00 00 	lea    0x0(,%rax,8),%rdx
  41116d:	00 
  41116e:	48 8b 85 48 ed ff ff 	mov    -0x12b8(%rbp),%rax
  411175:	48 01 d0             	add    %rdx,%rax
  411178:	48 8b 95 50 ed ff ff 	mov    -0x12b0(%rbp),%rdx
  41117f:	8b 8d cc ec ff ff    	mov    -0x1334(%rbp),%ecx
  411185:	48 63 c9             	movslq %ecx,%rcx
  411188:	48 c1 e1 02          	shl    $0x2,%rcx
  41118c:	48 01 ca             	add    %rcx,%rdx
  41118f:	f3 0f 10 02          	movss  (%rdx),%xmm0
  411193:	0f 14 c0             	unpcklps %xmm0,%xmm0
  411196:	0f 5a c0             	cvtps2pd %xmm0,%xmm0
  411199:	f2 0f 11 00          	movsd  %xmm0,(%rax)
  41119d:	83 85 cc ec ff ff 01 	addl   $0x1,-0x1334(%rbp)
  4111a4:	8b 85 cc ec ff ff    	mov    -0x1334(%rbp),%eax
  4111aa:	3b 85 dc ec ff ff    	cmp    -0x1324(%rbp),%eax
  4111b0:	7c ac                	jl     41115e <_Z13cartToPolar_2RKN2cv11_InputArrayES2_RKNS_12_OutputArrayES5_b+0x6d9>
  4111b2:	48 8b 95 60 ed ff ff 	mov    -0x12a0(%rbp),%rdx
  4111b9:	8b 85 dc ec ff ff    	mov    -0x1324(%rbp),%eax
  4111bf:	48 98                	cltq   
  4111c1:	48 0f af 85 10 ed ff 	imul   -0x12f0(%rbp),%rax
  4111c8:	ff 
  4111c9:	48 01 d0             	add    %rdx,%rax
  4111cc:	48 89 85 60 ed ff ff 	mov    %rax,-0x12a0(%rbp)
  4111d3:	48 8b 95 68 ed ff ff 	mov    -0x1298(%rbp),%rdx
  4111da:	8b 85 dc ec ff ff    	mov    -0x1324(%rbp),%eax
  4111e0:	48 98                	cltq   
  4111e2:	48 0f af 85 10 ed ff 	imul   -0x12f0(%rbp),%rax
  4111e9:	ff 
  4111ea:	48 01 d0             	add    %rdx,%rax
  4111ed:	48 89 85 68 ed ff ff 	mov    %rax,-0x1298(%rbp)
  4111f4:	48 8b 95 70 ed ff ff 	mov    -0x1290(%rbp),%rdx
  4111fb:	8b 85 dc ec ff ff    	mov    -0x1324(%rbp),%eax
  411201:	48 98                	cltq   
  411203:	48 0f af 85 10 ed ff 	imul   -0x12f0(%rbp),%rax
  41120a:	ff 
  41120b:	48 01 d0             	add    %rdx,%rax
  41120e:	48 89 85 70 ed ff ff 	mov    %rax,-0x1290(%rbp)
  411215:	48 8b 95 78 ed ff ff 	mov    -0x1288(%rbp),%rdx
  41121c:	8b 85 dc ec ff ff    	mov    -0x1324(%rbp),%eax
  411222:	48 98                	cltq   
  411224:	48 0f af 85 10 ed ff 	imul   -0x12f0(%rbp),%rax
  41122b:	ff 
  41122c:	48 01 d0             	add    %rdx,%rax
  41122f:	48 89 85 78 ed ff ff 	mov    %rax,-0x1288(%rbp)
  411236:	8b 85 c4 ec ff ff    	mov    -0x133c(%rbp),%eax
  41123c:	01 85 c8 ec ff ff    	add    %eax,-0x1338(%rbp)
  411242:	8b 85 c0 ec ff ff    	mov    -0x1340(%rbp),%eax
  411248:	39 85 c8 ec ff ff    	cmp    %eax,-0x1338(%rbp)
  41124e:	0f 8c 0b fd ff ff    	jl     410f5f <_Z13cartToPolar_2RKN2cv11_InputArrayES2_RKNS_12_OutputArrayES5_b+0x4da>
  411254:	48 83 85 08 ed ff ff 	addq   $0x1,-0x12f8(%rbp)
  41125b:	01 
  41125c:	48 8d 85 f0 ed ff ff 	lea    -0x1210(%rbp),%rax
  411263:	48 89 c7             	mov    %rax,%rdi
  411266:	e8 b5 ea ff ff       	callq  40fd20 <_ZN2cv15NAryMatIteratorppEv@plt>
  41126b:	48 8b 85 10 ee ff ff 	mov    -0x11f0(%rbp),%rax
  411272:	48 3b 85 08 ed ff ff 	cmp    -0x12f8(%rbp),%rax
  411279:	0f 87 d1 fc ff ff    	ja     410f50 <_Z13cartToPolar_2RKN2cv11_InputArrayES2_RKNS_12_OutputArrayES5_b+0x4cb>
  41127f:	48 8d 85 b0 ef ff ff 	lea    -0x1050(%rbp),%rax
  411286:	48 89 c7             	mov    %rax,%rdi
  411289:	e8 60 d7 00 00       	callq  41e9ee <_ZN2cv10AutoBufferIfLm1032EED1Ev>
  41128e:	48 8d 85 50 ef ff ff 	lea    -0x10b0(%rbp),%rax
  411295:	48 89 c7             	mov    %rax,%rdi
  411298:	e8 2b bc 00 00       	callq  41cec8 <_ZN2cv3MatD1Ev>
  41129d:	48 8d 85 f0 ee ff ff 	lea    -0x1110(%rbp),%rax
  4112a4:	48 89 c7             	mov    %rax,%rdi
  4112a7:	e8 1c bc 00 00       	callq  41cec8 <_ZN2cv3MatD1Ev>
  4112ac:	48 8d 85 90 ee ff ff 	lea    -0x1170(%rbp),%rax
  4112b3:	48 89 c7             	mov    %rax,%rdi
  4112b6:	e8 0d bc 00 00       	callq  41cec8 <_ZN2cv3MatD1Ev>
  4112bb:	48 8d 85 30 ee ff ff 	lea    -0x11d0(%rbp),%rax
  4112c2:	48 89 c7             	mov    %rax,%rdi
  4112c5:	e8 fe bb 00 00       	callq  41cec8 <_ZN2cv3MatD1Ev>
  4112ca:	e9 ef 00 00 00       	jmpq   4113be <_Z13cartToPolar_2RKN2cv11_InputArrayES2_RKNS_12_OutputArrayES5_b+0x939>
  4112cf:	48 89 c3             	mov    %rax,%rbx
  4112d2:	48 8d 85 b0 ed ff ff 	lea    -0x1250(%rbp),%rax
  4112d9:	48 89 c7             	mov    %rax,%rdi
  4112dc:	e8 4f ed ff ff       	callq  410030 <_ZN2cv9ExceptionD1Ev@plt>
  4112e1:	eb 03                	jmp    4112e6 <_Z13cartToPolar_2RKN2cv11_InputArrayES2_RKNS_12_OutputArrayES5_b+0x861>
  4112e3:	48 89 c3             	mov    %rax,%rbx
  4112e6:	48 8d 85 e0 ec ff ff 	lea    -0x1320(%rbp),%rax
  4112ed:	48 89 c7             	mov    %rax,%rdi
  4112f0:	e8 8b ef ff ff       	callq  410280 <_ZNSsD1Ev@plt>
  4112f5:	eb 03                	jmp    4112fa <_Z13cartToPolar_2RKN2cv11_InputArrayES2_RKNS_12_OutputArrayES5_b+0x875>
  4112f7:	48 89 c3             	mov    %rax,%rbx
  4112fa:	48 8d 85 f0 ee ff ff 	lea    -0x1110(%rbp),%rax
  411301:	48 89 c7             	mov    %rax,%rdi
  411304:	e8 a7 ef ff ff       	callq  4102b0 <_ZNSaIcED1Ev@plt>
  411309:	48 8d 85 f0 ec ff ff 	lea    -0x1310(%rbp),%rax
  411310:	48 89 c7             	mov    %rax,%rdi
  411313:	e8 68 ef ff ff       	callq  410280 <_ZNSsD1Ev@plt>
  411318:	eb 03                	jmp    41131d <_Z13cartToPolar_2RKN2cv11_InputArrayES2_RKNS_12_OutputArrayES5_b+0x898>
  41131a:	48 89 c3             	mov    %rax,%rbx
  41131d:	48 8d 85 50 ef ff ff 	lea    -0x10b0(%rbp),%rax
  411324:	48 89 c7             	mov    %rax,%rdi
  411327:	e8 84 ef ff ff       	callq  4102b0 <_ZNSaIcED1Ev@plt>
  41132c:	48 8d 85 00 ed ff ff 	lea    -0x1300(%rbp),%rax
  411333:	48 89 c7             	mov    %rax,%rdi
  411336:	e8 45 ef ff ff       	callq  410280 <_ZNSsD1Ev@plt>
  41133b:	eb 03                	jmp    411340 <_Z13cartToPolar_2RKN2cv11_InputArrayES2_RKNS_12_OutputArrayES5_b+0x8bb>
  41133d:	48 89 c3             	mov    %rax,%rbx
  411340:	48 8d 85 b0 ef ff ff 	lea    -0x1050(%rbp),%rax
  411347:	48 89 c7             	mov    %rax,%rdi
  41134a:	e8 61 ef ff ff       	callq  4102b0 <_ZNSaIcED1Ev@plt>
  41134f:	eb 3f                	jmp    411390 <_Z13cartToPolar_2RKN2cv11_InputArrayES2_RKNS_12_OutputArrayES5_b+0x90b>
  411351:	48 89 c3             	mov    %rax,%rbx
  411354:	48 8d 85 b0 ef ff ff 	lea    -0x1050(%rbp),%rax
  41135b:	48 89 c7             	mov    %rax,%rdi
  41135e:	e8 8b d6 00 00       	callq  41e9ee <_ZN2cv10AutoBufferIfLm1032EED1Ev>
  411363:	eb 03                	jmp    411368 <_Z13cartToPolar_2RKN2cv11_InputArrayES2_RKNS_12_OutputArrayES5_b+0x8e3>
  411365:	48 89 c3             	mov    %rax,%rbx
  411368:	48 8d 85 50 ef ff ff 	lea    -0x10b0(%rbp),%rax
  41136f:	48 89 c7             	mov    %rax,%rdi
  411372:	e8 51 bb 00 00       	callq  41cec8 <_ZN2cv3MatD1Ev>
  411377:	eb 03                	jmp    41137c <_Z13cartToPolar_2RKN2cv11_InputArrayES2_RKNS_12_OutputArrayES5_b+0x8f7>
  411379:	48 89 c3             	mov    %rax,%rbx
  41137c:	48 8d 85 f0 ee ff ff 	lea    -0x1110(%rbp),%rax
  411383:	48 89 c7             	mov    %rax,%rdi
  411386:	e8 3d bb 00 00       	callq  41cec8 <_ZN2cv3MatD1Ev>
  41138b:	eb 03                	jmp    411390 <_Z13cartToPolar_2RKN2cv11_InputArrayES2_RKNS_12_OutputArrayES5_b+0x90b>
  41138d:	48 89 c3             	mov    %rax,%rbx
  411390:	48 8d 85 90 ee ff ff 	lea    -0x1170(%rbp),%rax
  411397:	48 89 c7             	mov    %rax,%rdi
  41139a:	e8 29 bb 00 00       	callq  41cec8 <_ZN2cv3MatD1Ev>
  41139f:	eb 03                	jmp    4113a4 <_Z13cartToPolar_2RKN2cv11_InputArrayES2_RKNS_12_OutputArrayES5_b+0x91f>
  4113a1:	48 89 c3             	mov    %rax,%rbx
  4113a4:	48 8d 85 30 ee ff ff 	lea    -0x11d0(%rbp),%rax
  4113ab:	48 89 c7             	mov    %rax,%rdi
  4113ae:	e8 15 bb 00 00       	callq  41cec8 <_ZN2cv3MatD1Ev>
  4113b3:	48 89 d8             	mov    %rbx,%rax
  4113b6:	48 89 c7             	mov    %rax,%rdi
  4113b9:	e8 d2 eb ff ff       	callq  40ff90 <_Unwind_Resume@plt>
  4113be:	48 81 c4 68 13 00 00 	add    $0x1368,%rsp
  4113c5:	5b                   	pop    %rbx
  4113c6:	5d                   	pop    %rbp
  4113c7:	c3                   	retq   

00000000004113c8 <_ZNK14HOGDescriptor217getDescriptorSizeEv>:
  4113c8:	55                   	push   %rbp
  4113c9:	48 89 e5             	mov    %rsp,%rbp
  4113cc:	53                   	push   %rbx
  4113cd:	48 81 ec 98 00 00 00 	sub    $0x98,%rsp
  4113d4:	e8 27 ed ff ff       	callq  410100 <mcount@plt>
  4113d9:	48 89 bd 68 ff ff ff 	mov    %rdi,-0x98(%rbp)
  4113e0:	48 8b 85 68 ff ff ff 	mov    -0x98(%rbp),%rax
  4113e7:	8b 40 10             	mov    0x10(%rax),%eax
  4113ea:	48 8b 95 68 ff ff ff 	mov    -0x98(%rbp),%rdx
  4113f1:	8b 4a 20             	mov    0x20(%rdx),%ecx
  4113f4:	99                   	cltd   
  4113f5:	f7 f9                	idiv   %ecx
  4113f7:	89 d0                	mov    %edx,%eax
  4113f9:	85 c0                	test   %eax,%eax
  4113fb:	75 22                	jne    41141f <_ZNK14HOGDescriptor217getDescriptorSizeEv+0x57>
  4113fd:	48 8b 85 68 ff ff ff 	mov    -0x98(%rbp),%rax
  411404:	8b 40 14             	mov    0x14(%rax),%eax
  411407:	48 8b 95 68 ff ff ff 	mov    -0x98(%rbp),%rdx
  41140e:	8b 4a 24             	mov    0x24(%rdx),%ecx
  411411:	99                   	cltd   
  411412:	f7 f9                	idiv   %ecx
  411414:	89 d0                	mov    %edx,%eax
  411416:	85 c0                	test   %eax,%eax
  411418:	75 05                	jne    41141f <_ZNK14HOGDescriptor217getDescriptorSizeEv+0x57>
  41141a:	e9 04 01 00 00       	jmpq   411523 <_ZNK14HOGDescriptor217getDescriptorSizeEv+0x15b>
  41141f:	48 8d 85 7f ff ff ff 	lea    -0x81(%rbp),%rax
  411426:	48 89 c7             	mov    %rax,%rdi
  411429:	e8 32 ed ff ff       	callq  410160 <_ZNSaIcEC1Ev@plt>
  41142e:	48 8d 95 7f ff ff ff 	lea    -0x81(%rbp),%rdx
  411435:	48 8d 45 a0          	lea    -0x60(%rbp),%rax
  411439:	be 19 9d 42 00       	mov    $0x429d19,%esi
  41143e:	48 89 c7             	mov    %rax,%rdi
  411441:	e8 4a ee ff ff       	callq  410290 <_ZNSsC1EPKcRKSaIcE@plt>
  411446:	48 8d 85 7e ff ff ff 	lea    -0x82(%rbp),%rax
  41144d:	48 89 c7             	mov    %rax,%rdi
  411450:	e8 0b ed ff ff       	callq  410160 <_ZNSaIcEC1Ev@plt>
  411455:	48 8d 95 7e ff ff ff 	lea    -0x82(%rbp),%rdx
  41145c:	48 8d 45 90          	lea    -0x70(%rbp),%rax
  411460:	be 40 a3 42 00       	mov    $0x42a340,%esi
  411465:	48 89 c7             	mov    %rax,%rdi
  411468:	e8 23 ee ff ff       	callq  410290 <_ZNSsC1EPKcRKSaIcE@plt>
  41146d:	48 8d 85 7d ff ff ff 	lea    -0x83(%rbp),%rax
  411474:	48 89 c7             	mov    %rax,%rdi
  411477:	e8 e4 ec ff ff       	callq  410160 <_ZNSaIcEC1Ev@plt>
  41147c:	48 8d 95 7d ff ff ff 	lea    -0x83(%rbp),%rdx
  411483:	48 8d 45 80          	lea    -0x80(%rbp),%rax
  411487:	be a0 9d 42 00       	mov    $0x429da0,%esi
  41148c:	48 89 c7             	mov    %rax,%rdi
  41148f:	e8 fc ed ff ff       	callq  410290 <_ZNSsC1EPKcRKSaIcE@plt>
  411494:	48 8d 75 a0          	lea    -0x60(%rbp),%rsi
  411498:	48 8d 4d 90          	lea    -0x70(%rbp),%rcx
  41149c:	48 8d 55 80          	lea    -0x80(%rbp),%rdx
  4114a0:	48 8d 45 b0          	lea    -0x50(%rbp),%rax
  4114a4:	41 b9 3c 01 00 00    	mov    $0x13c,%r9d
  4114aa:	49 89 f0             	mov    %rsi,%r8
  4114ad:	be 29 ff ff ff       	mov    $0xffffff29,%esi
  4114b2:	48 89 c7             	mov    %rax,%rdi
  4114b5:	e8 36 ea ff ff       	callq  40fef0 <_ZN2cv9ExceptionC1EiRKSsS2_S2_i@plt>
  4114ba:	48 8d 45 b0          	lea    -0x50(%rbp),%rax
  4114be:	48 89 c7             	mov    %rax,%rdi
  4114c1:	e8 9a ea ff ff       	callq  40ff60 <_ZN2cv5errorERKNS_9ExceptionE@plt>
  4114c6:	48 8d 45 b0          	lea    -0x50(%rbp),%rax
  4114ca:	48 89 c7             	mov    %rax,%rdi
  4114cd:	e8 5e eb ff ff       	callq  410030 <_ZN2cv9ExceptionD1Ev@plt>
  4114d2:	48 8d 45 80          	lea    -0x80(%rbp),%rax
  4114d6:	48 89 c7             	mov    %rax,%rdi
  4114d9:	e8 a2 ed ff ff       	callq  410280 <_ZNSsD1Ev@plt>
  4114de:	48 8d 85 7d ff ff ff 	lea    -0x83(%rbp),%rax
  4114e5:	48 89 c7             	mov    %rax,%rdi
  4114e8:	e8 c3 ed ff ff       	callq  4102b0 <_ZNSaIcED1Ev@plt>
  4114ed:	48 8d 45 90          	lea    -0x70(%rbp),%rax
  4114f1:	48 89 c7             	mov    %rax,%rdi
  4114f4:	e8 87 ed ff ff       	callq  410280 <_ZNSsD1Ev@plt>
  4114f9:	48 8d 85 7e ff ff ff 	lea    -0x82(%rbp),%rax
  411500:	48 89 c7             	mov    %rax,%rdi
  411503:	e8 a8 ed ff ff       	callq  4102b0 <_ZNSaIcED1Ev@plt>
  411508:	48 8d 45 a0          	lea    -0x60(%rbp),%rax
  41150c:	48 89 c7             	mov    %rax,%rdi
  41150f:	e8 6c ed ff ff       	callq  410280 <_ZNSsD1Ev@plt>
  411514:	48 8d 85 7f ff ff ff 	lea    -0x81(%rbp),%rax
  41151b:	48 89 c7             	mov    %rax,%rdi
  41151e:	e8 8d ed ff ff       	callq  4102b0 <_ZNSaIcED1Ev@plt>
  411523:	48 8b 85 68 ff ff ff 	mov    -0x98(%rbp),%rax
  41152a:	8b 50 08             	mov    0x8(%rax),%edx
  41152d:	48 8b 85 68 ff ff ff 	mov    -0x98(%rbp),%rax
  411534:	8b 40 10             	mov    0x10(%rax),%eax
  411537:	29 c2                	sub    %eax,%edx
  411539:	48 8b 85 68 ff ff ff 	mov    -0x98(%rbp),%rax
  411540:	8b 48 18             	mov    0x18(%rax),%ecx
  411543:	89 d0                	mov    %edx,%eax
  411545:	99                   	cltd   
  411546:	f7 f9                	idiv   %ecx
  411548:	89 d0                	mov    %edx,%eax
  41154a:	85 c0                	test   %eax,%eax
  41154c:	75 30                	jne    41157e <_ZNK14HOGDescriptor217getDescriptorSizeEv+0x1b6>
  41154e:	48 8b 85 68 ff ff ff 	mov    -0x98(%rbp),%rax
  411555:	8b 50 0c             	mov    0xc(%rax),%edx
  411558:	48 8b 85 68 ff ff ff 	mov    -0x98(%rbp),%rax
  41155f:	8b 40 14             	mov    0x14(%rax),%eax
  411562:	29 c2                	sub    %eax,%edx
  411564:	48 8b 85 68 ff ff ff 	mov    -0x98(%rbp),%rax
  41156b:	8b 48 1c             	mov    0x1c(%rax),%ecx
  41156e:	89 d0                	mov    %edx,%eax
  411570:	99                   	cltd   
  411571:	f7 f9                	idiv   %ecx
  411573:	89 d0                	mov    %edx,%eax
  411575:	85 c0                	test   %eax,%eax
  411577:	75 05                	jne    41157e <_ZNK14HOGDescriptor217getDescriptorSizeEv+0x1b6>
  411579:	e9 04 01 00 00       	jmpq   411682 <_ZNK14HOGDescriptor217getDescriptorSizeEv+0x2ba>
  41157e:	48 8d 85 7f ff ff ff 	lea    -0x81(%rbp),%rax
  411585:	48 89 c7             	mov    %rax,%rdi
  411588:	e8 d3 eb ff ff       	callq  410160 <_ZNSaIcEC1Ev@plt>
  41158d:	48 8d 95 7f ff ff ff 	lea    -0x81(%rbp),%rdx
  411594:	48 8d 45 a0          	lea    -0x60(%rbp),%rax
  411598:	be 19 9d 42 00       	mov    $0x429d19,%esi
  41159d:	48 89 c7             	mov    %rax,%rdi
  4115a0:	e8 eb ec ff ff       	callq  410290 <_ZNSsC1EPKcRKSaIcE@plt>
  4115a5:	48 8d 85 7e ff ff ff 	lea    -0x82(%rbp),%rax
  4115ac:	48 89 c7             	mov    %rax,%rdi
  4115af:	e8 ac eb ff ff       	callq  410160 <_ZNSaIcEC1Ev@plt>
  4115b4:	48 8d 95 7e ff ff ff 	lea    -0x82(%rbp),%rdx
  4115bb:	48 8d 45 90          	lea    -0x70(%rbp),%rax
  4115bf:	be 40 a3 42 00       	mov    $0x42a340,%esi
  4115c4:	48 89 c7             	mov    %rax,%rdi
  4115c7:	e8 c4 ec ff ff       	callq  410290 <_ZNSsC1EPKcRKSaIcE@plt>
  4115cc:	48 8d 85 7d ff ff ff 	lea    -0x83(%rbp),%rax
  4115d3:	48 89 c7             	mov    %rax,%rdi
  4115d6:	e8 85 eb ff ff       	callq  410160 <_ZNSaIcEC1Ev@plt>
  4115db:	48 8d 95 7d ff ff ff 	lea    -0x83(%rbp),%rdx
  4115e2:	48 8d 45 80          	lea    -0x80(%rbp),%rax
  4115e6:	be f8 9d 42 00       	mov    $0x429df8,%esi
  4115eb:	48 89 c7             	mov    %rax,%rdi
  4115ee:	e8 9d ec ff ff       	callq  410290 <_ZNSsC1EPKcRKSaIcE@plt>
  4115f3:	48 8d 75 a0          	lea    -0x60(%rbp),%rsi
  4115f7:	48 8d 4d 90          	lea    -0x70(%rbp),%rcx
  4115fb:	48 8d 55 80          	lea    -0x80(%rbp),%rdx
  4115ff:	48 8d 45 b0          	lea    -0x50(%rbp),%rax
  411603:	41 b9 3e 01 00 00    	mov    $0x13e,%r9d
  411609:	49 89 f0             	mov    %rsi,%r8
  41160c:	be 29 ff ff ff       	mov    $0xffffff29,%esi
  411611:	48 89 c7             	mov    %rax,%rdi
  411614:	e8 d7 e8 ff ff       	callq  40fef0 <_ZN2cv9ExceptionC1EiRKSsS2_S2_i@plt>
  411619:	48 8d 45 b0          	lea    -0x50(%rbp),%rax
  41161d:	48 89 c7             	mov    %rax,%rdi
  411620:	e8 3b e9 ff ff       	callq  40ff60 <_ZN2cv5errorERKNS_9ExceptionE@plt>
  411625:	48 8d 45 b0          	lea    -0x50(%rbp),%rax
  411629:	48 89 c7             	mov    %rax,%rdi
  41162c:	e8 ff e9 ff ff       	callq  410030 <_ZN2cv9ExceptionD1Ev@plt>
  411631:	48 8d 45 80          	lea    -0x80(%rbp),%rax
  411635:	48 89 c7             	mov    %rax,%rdi
  411638:	e8 43 ec ff ff       	callq  410280 <_ZNSsD1Ev@plt>
  41163d:	48 8d 85 7d ff ff ff 	lea    -0x83(%rbp),%rax
  411644:	48 89 c7             	mov    %rax,%rdi
  411647:	e8 64 ec ff ff       	callq  4102b0 <_ZNSaIcED1Ev@plt>
  41164c:	48 8d 45 90          	lea    -0x70(%rbp),%rax
  411650:	48 89 c7             	mov    %rax,%rdi
  411653:	e8 28 ec ff ff       	callq  410280 <_ZNSsD1Ev@plt>
  411658:	48 8d 85 7e ff ff ff 	lea    -0x82(%rbp),%rax
  41165f:	48 89 c7             	mov    %rax,%rdi
  411662:	e8 49 ec ff ff       	callq  4102b0 <_ZNSaIcED1Ev@plt>
  411667:	48 8d 45 a0          	lea    -0x60(%rbp),%rax
  41166b:	48 89 c7             	mov    %rax,%rdi
  41166e:	e8 0d ec ff ff       	callq  410280 <_ZNSsD1Ev@plt>
  411673:	48 8d 85 7f ff ff ff 	lea    -0x81(%rbp),%rax
  41167a:	48 89 c7             	mov    %rax,%rdi
  41167d:	e8 2e ec ff ff       	callq  4102b0 <_ZNSaIcED1Ev@plt>
  411682:	48 8b 85 68 ff ff ff 	mov    -0x98(%rbp),%rax
  411689:	8b 40 28             	mov    0x28(%rax),%eax
  41168c:	48 63 c8             	movslq %eax,%rcx
  41168f:	48 8b 85 68 ff ff ff 	mov    -0x98(%rbp),%rax
  411696:	8b 40 10             	mov    0x10(%rax),%eax
  411699:	48 8b 95 68 ff ff ff 	mov    -0x98(%rbp),%rdx
  4116a0:	8b 72 20             	mov    0x20(%rdx),%esi
  4116a3:	99                   	cltd   
  4116a4:	f7 fe                	idiv   %esi
  4116a6:	48 98                	cltq   
  4116a8:	48 0f af c8          	imul   %rax,%rcx
  4116ac:	48 8b 85 68 ff ff ff 	mov    -0x98(%rbp),%rax
  4116b3:	8b 40 14             	mov    0x14(%rax),%eax
  4116b6:	48 8b 95 68 ff ff ff 	mov    -0x98(%rbp),%rdx
  4116bd:	8b 72 24             	mov    0x24(%rdx),%esi
  4116c0:	99                   	cltd   
  4116c1:	f7 fe                	idiv   %esi
  4116c3:	48 98                	cltq   
  4116c5:	48 0f af c8          	imul   %rax,%rcx
  4116c9:	48 8b 85 68 ff ff ff 	mov    -0x98(%rbp),%rax
  4116d0:	8b 50 08             	mov    0x8(%rax),%edx
  4116d3:	48 8b 85 68 ff ff ff 	mov    -0x98(%rbp),%rax
  4116da:	8b 40 10             	mov    0x10(%rax),%eax
  4116dd:	89 d6                	mov    %edx,%esi
  4116df:	29 c6                	sub    %eax,%esi
  4116e1:	48 8b 85 68 ff ff ff 	mov    -0x98(%rbp),%rax
  4116e8:	8b 58 18             	mov    0x18(%rax),%ebx
  4116eb:	89 f0                	mov    %esi,%eax
  4116ed:	99                   	cltd   
  4116ee:	f7 fb                	idiv   %ebx
  4116f0:	83 c0 01             	add    $0x1,%eax
  4116f3:	48 98                	cltq   
  4116f5:	48 0f af c8          	imul   %rax,%rcx
  4116f9:	48 8b 85 68 ff ff ff 	mov    -0x98(%rbp),%rax
  411700:	8b 50 0c             	mov    0xc(%rax),%edx
  411703:	48 8b 85 68 ff ff ff 	mov    -0x98(%rbp),%rax
  41170a:	8b 40 14             	mov    0x14(%rax),%eax
  41170d:	89 d6                	mov    %edx,%esi
  41170f:	29 c6                	sub    %eax,%esi
  411711:	48 8b 85 68 ff ff ff 	mov    -0x98(%rbp),%rax
  411718:	8b 58 1c             	mov    0x1c(%rax),%ebx
  41171b:	89 f0                	mov    %esi,%eax
  41171d:	99                   	cltd   
  41171e:	f7 fb                	idiv   %ebx
  411720:	83 c0 01             	add    $0x1,%eax
  411723:	48 98                	cltq   
  411725:	48 0f af c1          	imul   %rcx,%rax
  411729:	e9 fe 00 00 00       	jmpq   41182c <_ZNK14HOGDescriptor217getDescriptorSizeEv+0x464>
  41172e:	48 89 c3             	mov    %rax,%rbx
  411731:	48 8d 45 b0          	lea    -0x50(%rbp),%rax
  411735:	48 89 c7             	mov    %rax,%rdi
  411738:	e8 f3 e8 ff ff       	callq  410030 <_ZN2cv9ExceptionD1Ev@plt>
  41173d:	eb 03                	jmp    411742 <_ZNK14HOGDescriptor217getDescriptorSizeEv+0x37a>
  41173f:	48 89 c3             	mov    %rax,%rbx
  411742:	48 8d 45 80          	lea    -0x80(%rbp),%rax
  411746:	48 89 c7             	mov    %rax,%rdi
  411749:	e8 32 eb ff ff       	callq  410280 <_ZNSsD1Ev@plt>
  41174e:	eb 03                	jmp    411753 <_ZNK14HOGDescriptor217getDescriptorSizeEv+0x38b>
  411750:	48 89 c3             	mov    %rax,%rbx
  411753:	48 8d 85 7d ff ff ff 	lea    -0x83(%rbp),%rax
  41175a:	48 89 c7             	mov    %rax,%rdi
  41175d:	e8 4e eb ff ff       	callq  4102b0 <_ZNSaIcED1Ev@plt>
  411762:	48 8d 45 90          	lea    -0x70(%rbp),%rax
  411766:	48 89 c7             	mov    %rax,%rdi
  411769:	e8 12 eb ff ff       	callq  410280 <_ZNSsD1Ev@plt>
  41176e:	eb 03                	jmp    411773 <_ZNK14HOGDescriptor217getDescriptorSizeEv+0x3ab>
  411770:	48 89 c3             	mov    %rax,%rbx
  411773:	48 8d 85 7e ff ff ff 	lea    -0x82(%rbp),%rax
  41177a:	48 89 c7             	mov    %rax,%rdi
  41177d:	e8 2e eb ff ff       	callq  4102b0 <_ZNSaIcED1Ev@plt>
  411782:	48 8d 45 a0          	lea    -0x60(%rbp),%rax
  411786:	48 89 c7             	mov    %rax,%rdi
  411789:	e8 f2 ea ff ff       	callq  410280 <_ZNSsD1Ev@plt>
  41178e:	eb 03                	jmp    411793 <_ZNK14HOGDescriptor217getDescriptorSizeEv+0x3cb>
  411790:	48 89 c3             	mov    %rax,%rbx
  411793:	48 8d 85 7f ff ff ff 	lea    -0x81(%rbp),%rax
  41179a:	48 89 c7             	mov    %rax,%rdi
  41179d:	e8 0e eb ff ff       	callq  4102b0 <_ZNSaIcED1Ev@plt>
  4117a2:	48 89 d8             	mov    %rbx,%rax
  4117a5:	48 89 c7             	mov    %rax,%rdi
  4117a8:	e8 e3 e7 ff ff       	callq  40ff90 <_Unwind_Resume@plt>
  4117ad:	48 89 c3             	mov    %rax,%rbx
  4117b0:	48 8d 45 b0          	lea    -0x50(%rbp),%rax
  4117b4:	48 89 c7             	mov    %rax,%rdi
  4117b7:	e8 74 e8 ff ff       	callq  410030 <_ZN2cv9ExceptionD1Ev@plt>
  4117bc:	eb 03                	jmp    4117c1 <_ZNK14HOGDescriptor217getDescriptorSizeEv+0x3f9>
  4117be:	48 89 c3             	mov    %rax,%rbx
  4117c1:	48 8d 45 80          	lea    -0x80(%rbp),%rax
  4117c5:	48 89 c7             	mov    %rax,%rdi
  4117c8:	e8 b3 ea ff ff       	callq  410280 <_ZNSsD1Ev@plt>
  4117cd:	eb 03                	jmp    4117d2 <_ZNK14HOGDescriptor217getDescriptorSizeEv+0x40a>
  4117cf:	48 89 c3             	mov    %rax,%rbx
  4117d2:	48 8d 85 7d ff ff ff 	lea    -0x83(%rbp),%rax
  4117d9:	48 89 c7             	mov    %rax,%rdi
  4117dc:	e8 cf ea ff ff       	callq  4102b0 <_ZNSaIcED1Ev@plt>
  4117e1:	48 8d 45 90          	lea    -0x70(%rbp),%rax
  4117e5:	48 89 c7             	mov    %rax,%rdi
  4117e8:	e8 93 ea ff ff       	callq  410280 <_ZNSsD1Ev@plt>
  4117ed:	eb 03                	jmp    4117f2 <_ZNK14HOGDescriptor217getDescriptorSizeEv+0x42a>
  4117ef:	48 89 c3             	mov    %rax,%rbx
  4117f2:	48 8d 85 7e ff ff ff 	lea    -0x82(%rbp),%rax
  4117f9:	48 89 c7             	mov    %rax,%rdi
  4117fc:	e8 af ea ff ff       	callq  4102b0 <_ZNSaIcED1Ev@plt>
  411801:	48 8d 45 a0          	lea    -0x60(%rbp),%rax
  411805:	48 89 c7             	mov    %rax,%rdi
  411808:	e8 73 ea ff ff       	callq  410280 <_ZNSsD1Ev@plt>
  41180d:	eb 03                	jmp    411812 <_ZNK14HOGDescriptor217getDescriptorSizeEv+0x44a>
  41180f:	48 89 c3             	mov    %rax,%rbx
  411812:	48 8d 85 7f ff ff ff 	lea    -0x81(%rbp),%rax
  411819:	48 89 c7             	mov    %rax,%rdi
  41181c:	e8 8f ea ff ff       	callq  4102b0 <_ZNSaIcED1Ev@plt>
  411821:	48 89 d8             	mov    %rbx,%rax
  411824:	48 89 c7             	mov    %rax,%rdi
  411827:	e8 64 e7 ff ff       	callq  40ff90 <_Unwind_Resume@plt>
  41182c:	48 81 c4 98 00 00 00 	add    $0x98,%rsp
  411833:	5b                   	pop    %rbx
  411834:	5d                   	pop    %rbp
  411835:	c3                   	retq   

0000000000411836 <_ZNK14HOGDescriptor211getWinSigmaEv>:
  411836:	55                   	push   %rbp
  411837:	48 89 e5             	mov    %rsp,%rbp
  41183a:	48 83 ec 10          	sub    $0x10,%rsp
  41183e:	e8 bd e8 ff ff       	callq  410100 <mcount@plt>
  411843:	48 89 7d f8          	mov    %rdi,-0x8(%rbp)
  411847:	48 8b 45 f8          	mov    -0x8(%rbp),%rax
  41184b:	f2 0f 10 40 30       	movsd  0x30(%rax),%xmm0
  411850:	66 0f 57 c9          	xorpd  %xmm1,%xmm1
  411854:	66 0f 2e c1          	ucomisd %xmm1,%xmm0
  411858:	72 0a                	jb     411864 <_ZNK14HOGDescriptor211getWinSigmaEv+0x2e>
  41185a:	48 8b 45 f8          	mov    -0x8(%rbp),%rax
  41185e:	48 8b 40 30          	mov    0x30(%rax),%rax
  411862:	eb 29                	jmp    41188d <_ZNK14HOGDescriptor211getWinSigmaEv+0x57>
  411864:	48 8b 45 f8          	mov    -0x8(%rbp),%rax
  411868:	8b 50 10             	mov    0x10(%rax),%edx
  41186b:	48 8b 45 f8          	mov    -0x8(%rbp),%rax
  41186f:	8b 40 14             	mov    0x14(%rax),%eax
  411872:	01 d0                	add    %edx,%eax
  411874:	f2 0f 2a c0          	cvtsi2sd %eax,%xmm0
  411878:	f2 0f 10 0d 58 e8 01 	movsd  0x1e858(%rip),%xmm1        # 4300d8 <_ZZN2cv9partitionINS_5Rect_IiEE13SimilarRects2EEiRKSt6vectorIT_SaIS5_EERS4_IiSaIiEET0_E19__PRETTY_FUNCTION__+0xd8>
  41187f:	00 
  411880:	f2 0f 5e c1          	divsd  %xmm1,%xmm0
  411884:	f2 0f 11 45 f0       	movsd  %xmm0,-0x10(%rbp)
  411889:	48 8b 45 f0          	mov    -0x10(%rbp),%rax
  41188d:	48 89 45 f0          	mov    %rax,-0x10(%rbp)
  411891:	f2 0f 10 45 f0       	movsd  -0x10(%rbp),%xmm0
  411896:	c9                   	leaveq 
  411897:	c3                   	retq   

0000000000411898 <_ZNK14HOGDescriptor217checkDetectorSizeEv>:
  411898:	55                   	push   %rbp
  411899:	48 89 e5             	mov    %rsp,%rbp
  41189c:	48 83 ec 20          	sub    $0x20,%rsp
  4118a0:	e8 5b e8 ff ff       	callq  410100 <mcount@plt>
  4118a5:	48 89 7d e8          	mov    %rdi,-0x18(%rbp)
  4118a9:	48 8b 45 e8          	mov    -0x18(%rbp),%rax
  4118ad:	48 83 c0 50          	add    $0x50,%rax
  4118b1:	48 89 c7             	mov    %rax,%rdi
  4118b4:	e8 cb d1 00 00       	callq  41ea84 <_ZNKSt6vectorIfSaIfEE4sizeEv>
  4118b9:	48 89 45 f0          	mov    %rax,-0x10(%rbp)
  4118bd:	48 8b 45 e8          	mov    -0x18(%rbp),%rax
  4118c1:	48 89 c7             	mov    %rax,%rdi
  4118c4:	e8 ff fa ff ff       	callq  4113c8 <_ZNK14HOGDescriptor217getDescriptorSizeEv>
  4118c9:	48 89 45 f8          	mov    %rax,-0x8(%rbp)
  4118cd:	48 83 7d f0 00       	cmpq   $0x0,-0x10(%rbp)
  4118d2:	74 18                	je     4118ec <_ZNK14HOGDescriptor217checkDetectorSizeEv+0x54>
  4118d4:	48 8b 45 f0          	mov    -0x10(%rbp),%rax
  4118d8:	48 3b 45 f8          	cmp    -0x8(%rbp),%rax
  4118dc:	74 0e                	je     4118ec <_ZNK14HOGDescriptor217checkDetectorSizeEv+0x54>
  4118de:	48 8b 45 f8          	mov    -0x8(%rbp),%rax
  4118e2:	48 83 c0 01          	add    $0x1,%rax
  4118e6:	48 3b 45 f0          	cmp    -0x10(%rbp),%rax
  4118ea:	75 07                	jne    4118f3 <_ZNK14HOGDescriptor217checkDetectorSizeEv+0x5b>
  4118ec:	b8 01 00 00 00       	mov    $0x1,%eax
  4118f1:	eb 05                	jmp    4118f8 <_ZNK14HOGDescriptor217checkDetectorSizeEv+0x60>
  4118f3:	b8 00 00 00 00       	mov    $0x0,%eax
  4118f8:	c9                   	leaveq 
  4118f9:	c3                   	retq   

00000000004118fa <_ZN14HOGDescriptor214setSVMDetectorERKN2cv11_InputArrayE>:
  4118fa:	55                   	push   %rbp
  4118fb:	48 89 e5             	mov    %rsp,%rbp
  4118fe:	53                   	push   %rbx
  4118ff:	48 81 ec c8 00 00 00 	sub    $0xc8,%rsp
  411906:	e8 f5 e7 ff ff       	callq  410100 <mcount@plt>
  41190b:	48 89 bd 38 ff ff ff 	mov    %rdi,-0xc8(%rbp)
  411912:	48 89 b5 30 ff ff ff 	mov    %rsi,-0xd0(%rbp)
  411919:	48 8b 85 38 ff ff ff 	mov    -0xc8(%rbp),%rax
  411920:	48 8d 50 50          	lea    0x50(%rax),%rdx
  411924:	48 8d 85 70 ff ff ff 	lea    -0x90(%rbp),%rax
  41192b:	48 89 d6             	mov    %rdx,%rsi
  41192e:	48 89 c7             	mov    %rax,%rdi
  411931:	e8 7e d1 00 00       	callq  41eab4 <_ZN2cv12_OutputArrayC1IfEERSt6vectorIT_SaIS3_EE>
  411936:	48 8b 85 30 ff ff ff 	mov    -0xd0(%rbp),%rax
  41193d:	48 8b 00             	mov    (%rax),%rax
  411940:	48 8b 00             	mov    (%rax),%rax
  411943:	48 8d 4d 90          	lea    -0x70(%rbp),%rcx
  411947:	48 8b b5 30 ff ff ff 	mov    -0xd0(%rbp),%rsi
  41194e:	ba ff ff ff ff       	mov    $0xffffffff,%edx
  411953:	48 89 cf             	mov    %rcx,%rdi
  411956:	ff d0                	callq  *%rax
  411958:	48 8d 8d 70 ff ff ff 	lea    -0x90(%rbp),%rcx
  41195f:	48 8d 45 90          	lea    -0x70(%rbp),%rax
  411963:	66 0f 57 c9          	xorpd  %xmm1,%xmm1
  411967:	f2 0f 10 05 71 e7 01 	movsd  0x1e771(%rip),%xmm0        # 4300e0 <_ZZN2cv9partitionINS_5Rect_IiEE13SimilarRects2EEiRKSt6vectorIT_SaIS5_EERS4_IiSaIiEET0_E19__PRETTY_FUNCTION__+0xe0>
  41196e:	00 
  41196f:	ba 05 00 00 00       	mov    $0x5,%edx
  411974:	48 89 ce             	mov    %rcx,%rsi
  411977:	48 89 c7             	mov    %rax,%rdi
  41197a:	e8 a1 e8 ff ff       	callq  410220 <_ZNK2cv3Mat9convertToERKNS_12_OutputArrayEidd@plt>
  41197f:	48 8d 45 90          	lea    -0x70(%rbp),%rax
  411983:	48 89 c7             	mov    %rax,%rdi
  411986:	e8 3d b5 00 00       	callq  41cec8 <_ZN2cv3MatD1Ev>
  41198b:	48 8b 85 38 ff ff ff 	mov    -0xc8(%rbp),%rax
  411992:	48 89 c7             	mov    %rax,%rdi
  411995:	e8 fe fe ff ff       	callq  411898 <_ZNK14HOGDescriptor217checkDetectorSizeEv>
  41199a:	84 c0                	test   %al,%al
  41199c:	0f 85 c6 01 00 00    	jne    411b68 <_ZN14HOGDescriptor214setSVMDetectorERKN2cv11_InputArrayE+0x26e>
  4119a2:	48 8d 85 4f ff ff ff 	lea    -0xb1(%rbp),%rax
  4119a9:	48 89 c7             	mov    %rax,%rdi
  4119ac:	e8 af e7 ff ff       	callq  410160 <_ZNSaIcEC1Ev@plt>
  4119b1:	48 8d 95 4f ff ff ff 	lea    -0xb1(%rbp),%rdx
  4119b8:	48 8d 85 70 ff ff ff 	lea    -0x90(%rbp),%rax
  4119bf:	be 19 9d 42 00       	mov    $0x429d19,%esi
  4119c4:	48 89 c7             	mov    %rax,%rdi
  4119c7:	e8 c4 e8 ff ff       	callq  410290 <_ZNSsC1EPKcRKSaIcE@plt>
  4119cc:	48 8d 85 4e ff ff ff 	lea    -0xb2(%rbp),%rax
  4119d3:	48 89 c7             	mov    %rax,%rdi
  4119d6:	e8 85 e7 ff ff       	callq  410160 <_ZNSaIcEC1Ev@plt>
  4119db:	48 8d 95 4e ff ff ff 	lea    -0xb2(%rbp),%rdx
  4119e2:	48 8d 85 60 ff ff ff 	lea    -0xa0(%rbp),%rax
  4119e9:	be 52 a3 42 00       	mov    $0x42a352,%esi
  4119ee:	48 89 c7             	mov    %rax,%rdi
  4119f1:	e8 9a e8 ff ff       	callq  410290 <_ZNSsC1EPKcRKSaIcE@plt>
  4119f6:	48 8d 85 4d ff ff ff 	lea    -0xb3(%rbp),%rax
  4119fd:	48 89 c7             	mov    %rax,%rdi
  411a00:	e8 5b e7 ff ff       	callq  410160 <_ZNSaIcEC1Ev@plt>
  411a05:	48 8d 95 4d ff ff ff 	lea    -0xb3(%rbp),%rdx
  411a0c:	48 8d 85 50 ff ff ff 	lea    -0xb0(%rbp),%rax
  411a13:	be 74 9e 42 00       	mov    $0x429e74,%esi
  411a18:	48 89 c7             	mov    %rax,%rdi
  411a1b:	e8 70 e8 ff ff       	callq  410290 <_ZNSsC1EPKcRKSaIcE@plt>
  411a20:	48 8d b5 70 ff ff ff 	lea    -0x90(%rbp),%rsi
  411a27:	48 8d 8d 60 ff ff ff 	lea    -0xa0(%rbp),%rcx
  411a2e:	48 8d 95 50 ff ff ff 	lea    -0xb0(%rbp),%rdx
  411a35:	48 8d 45 90          	lea    -0x70(%rbp),%rax
  411a39:	41 b9 56 01 00 00    	mov    $0x156,%r9d
  411a3f:	49 89 f0             	mov    %rsi,%r8
  411a42:	be 29 ff ff ff       	mov    $0xffffff29,%esi
  411a47:	48 89 c7             	mov    %rax,%rdi
  411a4a:	e8 a1 e4 ff ff       	callq  40fef0 <_ZN2cv9ExceptionC1EiRKSsS2_S2_i@plt>
  411a4f:	48 8d 45 90          	lea    -0x70(%rbp),%rax
  411a53:	48 89 c7             	mov    %rax,%rdi
  411a56:	e8 05 e5 ff ff       	callq  40ff60 <_ZN2cv5errorERKNS_9ExceptionE@plt>
  411a5b:	48 8d 45 90          	lea    -0x70(%rbp),%rax
  411a5f:	48 89 c7             	mov    %rax,%rdi
  411a62:	e8 c9 e5 ff ff       	callq  410030 <_ZN2cv9ExceptionD1Ev@plt>
  411a67:	48 8d 85 50 ff ff ff 	lea    -0xb0(%rbp),%rax
  411a6e:	48 89 c7             	mov    %rax,%rdi
  411a71:	e8 0a e8 ff ff       	callq  410280 <_ZNSsD1Ev@plt>
  411a76:	48 8d 85 4d ff ff ff 	lea    -0xb3(%rbp),%rax
  411a7d:	48 89 c7             	mov    %rax,%rdi
  411a80:	e8 2b e8 ff ff       	callq  4102b0 <_ZNSaIcED1Ev@plt>
  411a85:	48 8d 85 60 ff ff ff 	lea    -0xa0(%rbp),%rax
  411a8c:	48 89 c7             	mov    %rax,%rdi
  411a8f:	e8 ec e7 ff ff       	callq  410280 <_ZNSsD1Ev@plt>
  411a94:	48 8d 85 4e ff ff ff 	lea    -0xb2(%rbp),%rax
  411a9b:	48 89 c7             	mov    %rax,%rdi
  411a9e:	e8 0d e8 ff ff       	callq  4102b0 <_ZNSaIcED1Ev@plt>
  411aa3:	48 8d 85 70 ff ff ff 	lea    -0x90(%rbp),%rax
  411aaa:	48 89 c7             	mov    %rax,%rdi
  411aad:	e8 ce e7 ff ff       	callq  410280 <_ZNSsD1Ev@plt>
  411ab2:	48 8d 85 4f ff ff ff 	lea    -0xb1(%rbp),%rax
  411ab9:	48 89 c7             	mov    %rax,%rdi
  411abc:	e8 ef e7 ff ff       	callq  4102b0 <_ZNSaIcED1Ev@plt>
  411ac1:	e9 a2 00 00 00       	jmpq   411b68 <_ZN14HOGDescriptor214setSVMDetectorERKN2cv11_InputArrayE+0x26e>
  411ac6:	48 89 c3             	mov    %rax,%rbx
  411ac9:	48 8d 45 90          	lea    -0x70(%rbp),%rax
  411acd:	48 89 c7             	mov    %rax,%rdi
  411ad0:	e8 f3 b3 00 00       	callq  41cec8 <_ZN2cv3MatD1Ev>
  411ad5:	48 89 d8             	mov    %rbx,%rax
  411ad8:	48 89 c7             	mov    %rax,%rdi
  411adb:	e8 b0 e4 ff ff       	callq  40ff90 <_Unwind_Resume@plt>
  411ae0:	48 89 c3             	mov    %rax,%rbx
  411ae3:	48 8d 45 90          	lea    -0x70(%rbp),%rax
  411ae7:	48 89 c7             	mov    %rax,%rdi
  411aea:	e8 41 e5 ff ff       	callq  410030 <_ZN2cv9ExceptionD1Ev@plt>
  411aef:	eb 03                	jmp    411af4 <_ZN14HOGDescriptor214setSVMDetectorERKN2cv11_InputArrayE+0x1fa>
  411af1:	48 89 c3             	mov    %rax,%rbx
  411af4:	48 8d 85 50 ff ff ff 	lea    -0xb0(%rbp),%rax
  411afb:	48 89 c7             	mov    %rax,%rdi
  411afe:	e8 7d e7 ff ff       	callq  410280 <_ZNSsD1Ev@plt>
  411b03:	eb 03                	jmp    411b08 <_ZN14HOGDescriptor214setSVMDetectorERKN2cv11_InputArrayE+0x20e>
  411b05:	48 89 c3             	mov    %rax,%rbx
  411b08:	48 8d 85 4d ff ff ff 	lea    -0xb3(%rbp),%rax
  411b0f:	48 89 c7             	mov    %rax,%rdi
  411b12:	e8 99 e7 ff ff       	callq  4102b0 <_ZNSaIcED1Ev@plt>
  411b17:	48 8d 85 60 ff ff ff 	lea    -0xa0(%rbp),%rax
  411b1e:	48 89 c7             	mov    %rax,%rdi
  411b21:	e8 5a e7 ff ff       	callq  410280 <_ZNSsD1Ev@plt>
  411b26:	eb 03                	jmp    411b2b <_ZN14HOGDescriptor214setSVMDetectorERKN2cv11_InputArrayE+0x231>
  411b28:	48 89 c3             	mov    %rax,%rbx
  411b2b:	48 8d 85 4e ff ff ff 	lea    -0xb2(%rbp),%rax
  411b32:	48 89 c7             	mov    %rax,%rdi
  411b35:	e8 76 e7 ff ff       	callq  4102b0 <_ZNSaIcED1Ev@plt>
  411b3a:	48 8d 85 70 ff ff ff 	lea    -0x90(%rbp),%rax
  411b41:	48 89 c7             	mov    %rax,%rdi
  411b44:	e8 37 e7 ff ff       	callq  410280 <_ZNSsD1Ev@plt>
  411b49:	eb 03                	jmp    411b4e <_ZN14HOGDescriptor214setSVMDetectorERKN2cv11_InputArrayE+0x254>
  411b4b:	48 89 c3             	mov    %rax,%rbx
  411b4e:	48 8d 85 4f ff ff ff 	lea    -0xb1(%rbp),%rax
  411b55:	48 89 c7             	mov    %rax,%rdi
  411b58:	e8 53 e7 ff ff       	callq  4102b0 <_ZNSaIcED1Ev@plt>
  411b5d:	48 89 d8             	mov    %rbx,%rax
  411b60:	48 89 c7             	mov    %rax,%rdi
  411b63:	e8 28 e4 ff ff       	callq  40ff90 <_Unwind_Resume@plt>
  411b68:	48 81 c4 c8 00 00 00 	add    $0xc8,%rsp
  411b6f:	5b                   	pop    %rbx
  411b70:	5d                   	pop    %rbp
  411b71:	c3                   	retq   

0000000000411b72 <_ZN14HOGDescriptor24readERN2cv8FileNodeE>:
  411b72:	55                   	push   %rbp
  411b73:	48 89 e5             	mov    %rsp,%rbp
  411b76:	53                   	push   %rbx
  411b77:	48 81 ec 28 01 00 00 	sub    $0x128,%rsp
  411b7e:	e8 7d e5 ff ff       	callq  410100 <mcount@plt>
  411b83:	48 89 bd d8 fe ff ff 	mov    %rdi,-0x128(%rbp)
  411b8a:	48 89 b5 d0 fe ff ff 	mov    %rsi,-0x130(%rbp)
  411b91:	48 8b 85 d0 fe ff ff 	mov    -0x130(%rbp),%rax
  411b98:	48 89 c7             	mov    %rax,%rdi
  411b9b:	e8 80 ab 00 00       	callq  41c720 <_ZNK2cv8FileNode5isMapEv>
  411ba0:	83 f0 01             	xor    $0x1,%eax
  411ba3:	84 c0                	test   %al,%al
  411ba5:	74 0a                	je     411bb1 <_ZN14HOGDescriptor24readERN2cv8FileNodeE+0x3f>
  411ba7:	b8 00 00 00 00       	mov    $0x0,%eax
  411bac:	e9 88 06 00 00       	jmpq   412239 <_ZN14HOGDescriptor24readERN2cv8FileNodeE+0x6c7>
  411bb1:	48 8d 45 90          	lea    -0x70(%rbp),%rax
  411bb5:	48 8b 8d d0 fe ff ff 	mov    -0x130(%rbp),%rcx
  411bbc:	ba 88 9e 42 00       	mov    $0x429e88,%edx
  411bc1:	48 89 ce             	mov    %rcx,%rsi
  411bc4:	48 89 c7             	mov    %rax,%rdi
  411bc7:	e8 54 e2 ff ff       	callq  40fe20 <_ZNK2cv8FileNodeixEPKc@plt>
  411bcc:	48 8d 85 30 ff ff ff 	lea    -0xd0(%rbp),%rax
  411bd3:	48 8d 55 90          	lea    -0x70(%rbp),%rdx
  411bd7:	48 89 d6             	mov    %rdx,%rsi
  411bda:	48 89 c7             	mov    %rax,%rdi
  411bdd:	e8 ca ab 00 00       	callq  41c7ac <_ZNK2cv8FileNode5beginEv>
  411be2:	48 8b 85 d8 fe ff ff 	mov    -0x128(%rbp),%rax
  411be9:	48 8d 58 0c          	lea    0xc(%rax),%rbx
  411bed:	48 8b 85 d8 fe ff ff 	mov    -0x128(%rbp),%rax
  411bf4:	48 8d 50 08          	lea    0x8(%rax),%rdx
  411bf8:	48 8d 85 30 ff ff ff 	lea    -0xd0(%rbp),%rax
  411bff:	48 89 d6             	mov    %rdx,%rsi
  411c02:	48 89 c7             	mov    %rax,%rdi
  411c05:	e8 49 95 00 00       	callq  41b153 <_ZN2cvrsIiEERNS_16FileNodeIteratorES2_RT_>
  411c0a:	48 89 de             	mov    %rbx,%rsi
  411c0d:	48 89 c7             	mov    %rax,%rdi
  411c10:	e8 3e 95 00 00       	callq  41b153 <_ZN2cvrsIiEERNS_16FileNodeIteratorES2_RT_>
  411c15:	48 8d 85 20 ff ff ff 	lea    -0xe0(%rbp),%rax
  411c1c:	48 8b 8d d0 fe ff ff 	mov    -0x130(%rbp),%rcx
  411c23:	ba 90 9e 42 00       	mov    $0x429e90,%edx
  411c28:	48 89 ce             	mov    %rcx,%rsi
  411c2b:	48 89 c7             	mov    %rax,%rdi
  411c2e:	e8 ed e1 ff ff       	callq  40fe20 <_ZNK2cv8FileNodeixEPKc@plt>
  411c33:	48 8d 45 90          	lea    -0x70(%rbp),%rax
  411c37:	48 8d 95 20 ff ff ff 	lea    -0xe0(%rbp),%rdx
  411c3e:	48 89 d6             	mov    %rdx,%rsi
  411c41:	48 89 c7             	mov    %rax,%rdi
  411c44:	e8 63 ab 00 00       	callq  41c7ac <_ZNK2cv8FileNode5beginEv>
  411c49:	48 8b 45 90          	mov    -0x70(%rbp),%rax
  411c4d:	48 89 85 30 ff ff ff 	mov    %rax,-0xd0(%rbp)
  411c54:	48 8b 45 98          	mov    -0x68(%rbp),%rax
  411c58:	48 89 85 38 ff ff ff 	mov    %rax,-0xc8(%rbp)
  411c5f:	48 8b 45 a0          	mov    -0x60(%rbp),%rax
  411c63:	48 89 85 40 ff ff ff 	mov    %rax,-0xc0(%rbp)
  411c6a:	48 8b 45 a8          	mov    -0x58(%rbp),%rax
  411c6e:	48 89 85 48 ff ff ff 	mov    %rax,-0xb8(%rbp)
  411c75:	48 8b 45 b0          	mov    -0x50(%rbp),%rax
  411c79:	48 89 85 50 ff ff ff 	mov    %rax,-0xb0(%rbp)
  411c80:	48 8b 45 b8          	mov    -0x48(%rbp),%rax
  411c84:	48 89 85 58 ff ff ff 	mov    %rax,-0xa8(%rbp)
  411c8b:	48 8b 45 c0          	mov    -0x40(%rbp),%rax
  411c8f:	48 89 85 60 ff ff ff 	mov    %rax,-0xa0(%rbp)
  411c96:	48 8b 45 c8          	mov    -0x38(%rbp),%rax
  411c9a:	48 89 85 68 ff ff ff 	mov    %rax,-0x98(%rbp)
  411ca1:	48 8b 45 d0          	mov    -0x30(%rbp),%rax
  411ca5:	48 89 85 70 ff ff ff 	mov    %rax,-0x90(%rbp)
  411cac:	48 8b 45 d8          	mov    -0x28(%rbp),%rax
  411cb0:	48 89 85 78 ff ff ff 	mov    %rax,-0x88(%rbp)
  411cb7:	48 8b 45 e0          	mov    -0x20(%rbp),%rax
  411cbb:	48 89 45 80          	mov    %rax,-0x80(%rbp)
  411cbf:	48 8b 85 d8 fe ff ff 	mov    -0x128(%rbp),%rax
  411cc6:	48 8d 58 14          	lea    0x14(%rax),%rbx
  411cca:	48 8b 85 d8 fe ff ff 	mov    -0x128(%rbp),%rax
  411cd1:	48 8d 50 10          	lea    0x10(%rax),%rdx
  411cd5:	48 8d 85 30 ff ff ff 	lea    -0xd0(%rbp),%rax
  411cdc:	48 89 d6             	mov    %rdx,%rsi
  411cdf:	48 89 c7             	mov    %rax,%rdi
  411ce2:	e8 6c 94 00 00       	callq  41b153 <_ZN2cvrsIiEERNS_16FileNodeIteratorES2_RT_>
  411ce7:	48 89 de             	mov    %rbx,%rsi
  411cea:	48 89 c7             	mov    %rax,%rdi
  411ced:	e8 61 94 00 00       	callq  41b153 <_ZN2cvrsIiEERNS_16FileNodeIteratorES2_RT_>
  411cf2:	48 8d 85 20 ff ff ff 	lea    -0xe0(%rbp),%rax
  411cf9:	48 8b 8d d0 fe ff ff 	mov    -0x130(%rbp),%rcx
  411d00:	ba 9a 9e 42 00       	mov    $0x429e9a,%edx
  411d05:	48 89 ce             	mov    %rcx,%rsi
  411d08:	48 89 c7             	mov    %rax,%rdi
  411d0b:	e8 10 e1 ff ff       	callq  40fe20 <_ZNK2cv8FileNodeixEPKc@plt>
  411d10:	48 8d 45 90          	lea    -0x70(%rbp),%rax
  411d14:	48 8d 95 20 ff ff ff 	lea    -0xe0(%rbp),%rdx
  411d1b:	48 89 d6             	mov    %rdx,%rsi
  411d1e:	48 89 c7             	mov    %rax,%rdi
  411d21:	e8 86 aa 00 00       	callq  41c7ac <_ZNK2cv8FileNode5beginEv>
  411d26:	48 8b 45 90          	mov    -0x70(%rbp),%rax
  411d2a:	48 89 85 30 ff ff ff 	mov    %rax,-0xd0(%rbp)
  411d31:	48 8b 45 98          	mov    -0x68(%rbp),%rax
  411d35:	48 89 85 38 ff ff ff 	mov    %rax,-0xc8(%rbp)
  411d3c:	48 8b 45 a0          	mov    -0x60(%rbp),%rax
  411d40:	48 89 85 40 ff ff ff 	mov    %rax,-0xc0(%rbp)
  411d47:	48 8b 45 a8          	mov    -0x58(%rbp),%rax
  411d4b:	48 89 85 48 ff ff ff 	mov    %rax,-0xb8(%rbp)
  411d52:	48 8b 45 b0          	mov    -0x50(%rbp),%rax
  411d56:	48 89 85 50 ff ff ff 	mov    %rax,-0xb0(%rbp)
  411d5d:	48 8b 45 b8          	mov    -0x48(%rbp),%rax
  411d61:	48 89 85 58 ff ff ff 	mov    %rax,-0xa8(%rbp)
  411d68:	48 8b 45 c0          	mov    -0x40(%rbp),%rax
  411d6c:	48 89 85 60 ff ff ff 	mov    %rax,-0xa0(%rbp)
  411d73:	48 8b 45 c8          	mov    -0x38(%rbp),%rax
  411d77:	48 89 85 68 ff ff ff 	mov    %rax,-0x98(%rbp)
  411d7e:	48 8b 45 d0          	mov    -0x30(%rbp),%rax
  411d82:	48 89 85 70 ff ff ff 	mov    %rax,-0x90(%rbp)
  411d89:	48 8b 45 d8          	mov    -0x28(%rbp),%rax
  411d8d:	48 89 85 78 ff ff ff 	mov    %rax,-0x88(%rbp)
  411d94:	48 8b 45 e0          	mov    -0x20(%rbp),%rax
  411d98:	48 89 45 80          	mov    %rax,-0x80(%rbp)
  411d9c:	48 8b 85 d8 fe ff ff 	mov    -0x128(%rbp),%rax
  411da3:	48 8d 58 1c          	lea    0x1c(%rax),%rbx
  411da7:	48 8b 85 d8 fe ff ff 	mov    -0x128(%rbp),%rax
  411dae:	48 8d 50 18          	lea    0x18(%rax),%rdx
  411db2:	48 8d 85 30 ff ff ff 	lea    -0xd0(%rbp),%rax
  411db9:	48 89 d6             	mov    %rdx,%rsi
  411dbc:	48 89 c7             	mov    %rax,%rdi
  411dbf:	e8 8f 93 00 00       	callq  41b153 <_ZN2cvrsIiEERNS_16FileNodeIteratorES2_RT_>
  411dc4:	48 89 de             	mov    %rbx,%rsi
  411dc7:	48 89 c7             	mov    %rax,%rdi
  411dca:	e8 84 93 00 00       	callq  41b153 <_ZN2cvrsIiEERNS_16FileNodeIteratorES2_RT_>
  411dcf:	48 8d 85 20 ff ff ff 	lea    -0xe0(%rbp),%rax
  411dd6:	48 8b 8d d0 fe ff ff 	mov    -0x130(%rbp),%rcx
  411ddd:	ba a6 9e 42 00       	mov    $0x429ea6,%edx
  411de2:	48 89 ce             	mov    %rcx,%rsi
  411de5:	48 89 c7             	mov    %rax,%rdi
  411de8:	e8 33 e0 ff ff       	callq  40fe20 <_ZNK2cv8FileNodeixEPKc@plt>
  411ded:	48 8d 45 90          	lea    -0x70(%rbp),%rax
  411df1:	48 8d 95 20 ff ff ff 	lea    -0xe0(%rbp),%rdx
  411df8:	48 89 d6             	mov    %rdx,%rsi
  411dfb:	48 89 c7             	mov    %rax,%rdi
  411dfe:	e8 a9 a9 00 00       	callq  41c7ac <_ZNK2cv8FileNode5beginEv>
  411e03:	48 8b 45 90          	mov    -0x70(%rbp),%rax
  411e07:	48 89 85 30 ff ff ff 	mov    %rax,-0xd0(%rbp)
  411e0e:	48 8b 45 98          	mov    -0x68(%rbp),%rax
  411e12:	48 89 85 38 ff ff ff 	mov    %rax,-0xc8(%rbp)
  411e19:	48 8b 45 a0          	mov    -0x60(%rbp),%rax
  411e1d:	48 89 85 40 ff ff ff 	mov    %rax,-0xc0(%rbp)
  411e24:	48 8b 45 a8          	mov    -0x58(%rbp),%rax
  411e28:	48 89 85 48 ff ff ff 	mov    %rax,-0xb8(%rbp)
  411e2f:	48 8b 45 b0          	mov    -0x50(%rbp),%rax
  411e33:	48 89 85 50 ff ff ff 	mov    %rax,-0xb0(%rbp)
  411e3a:	48 8b 45 b8          	mov    -0x48(%rbp),%rax
  411e3e:	48 89 85 58 ff ff ff 	mov    %rax,-0xa8(%rbp)
  411e45:	48 8b 45 c0          	mov    -0x40(%rbp),%rax
  411e49:	48 89 85 60 ff ff ff 	mov    %rax,-0xa0(%rbp)
  411e50:	48 8b 45 c8          	mov    -0x38(%rbp),%rax
  411e54:	48 89 85 68 ff ff ff 	mov    %rax,-0x98(%rbp)
  411e5b:	48 8b 45 d0          	mov    -0x30(%rbp),%rax
  411e5f:	48 89 85 70 ff ff ff 	mov    %rax,-0x90(%rbp)
  411e66:	48 8b 45 d8          	mov    -0x28(%rbp),%rax
  411e6a:	48 89 85 78 ff ff ff 	mov    %rax,-0x88(%rbp)
  411e71:	48 8b 45 e0          	mov    -0x20(%rbp),%rax
  411e75:	48 89 45 80          	mov    %rax,-0x80(%rbp)
  411e79:	48 8b 85 d8 fe ff ff 	mov    -0x128(%rbp),%rax
  411e80:	48 8d 58 24          	lea    0x24(%rax),%rbx
  411e84:	48 8b 85 d8 fe ff ff 	mov    -0x128(%rbp),%rax
  411e8b:	48 8d 50 20          	lea    0x20(%rax),%rdx
  411e8f:	48 8d 85 30 ff ff ff 	lea    -0xd0(%rbp),%rax
  411e96:	48 89 d6             	mov    %rdx,%rsi
  411e99:	48 89 c7             	mov    %rax,%rdi
  411e9c:	e8 b2 92 00 00       	callq  41b153 <_ZN2cvrsIiEERNS_16FileNodeIteratorES2_RT_>
  411ea1:	48 89 de             	mov    %rbx,%rsi
  411ea4:	48 89 c7             	mov    %rax,%rdi
  411ea7:	e8 a7 92 00 00       	callq  41b153 <_ZN2cvrsIiEERNS_16FileNodeIteratorES2_RT_>
  411eac:	48 8b 85 d8 fe ff ff 	mov    -0x128(%rbp),%rax
  411eb3:	48 8d 58 28          	lea    0x28(%rax),%rbx
  411eb7:	48 8d 45 90          	lea    -0x70(%rbp),%rax
  411ebb:	48 8b 8d d0 fe ff ff 	mov    -0x130(%rbp),%rcx
  411ec2:	ba af 9e 42 00       	mov    $0x429eaf,%edx
  411ec7:	48 89 ce             	mov    %rcx,%rsi
  411eca:	48 89 c7             	mov    %rax,%rdi
  411ecd:	e8 4e df ff ff       	callq  40fe20 <_ZNK2cv8FileNodeixEPKc@plt>
  411ed2:	48 8d 45 90          	lea    -0x70(%rbp),%rax
  411ed6:	48 89 de             	mov    %rbx,%rsi
  411ed9:	48 89 c7             	mov    %rax,%rdi
  411edc:	e8 c0 92 00 00       	callq  41b1a1 <_ZN2cvrsIiEEvRKNS_8FileNodeERT_>
  411ee1:	48 8b 85 d8 fe ff ff 	mov    -0x128(%rbp),%rax
  411ee8:	48 8d 58 2c          	lea    0x2c(%rax),%rbx
  411eec:	48 8d 45 90          	lea    -0x70(%rbp),%rax
  411ef0:	48 8b 8d d0 fe ff ff 	mov    -0x130(%rbp),%rcx
  411ef7:	ba b5 9e 42 00       	mov    $0x429eb5,%edx
  411efc:	48 89 ce             	mov    %rcx,%rsi
  411eff:	48 89 c7             	mov    %rax,%rdi
  411f02:	e8 19 df ff ff       	callq  40fe20 <_ZNK2cv8FileNodeixEPKc@plt>
  411f07:	48 8d 45 90          	lea    -0x70(%rbp),%rax
  411f0b:	48 89 de             	mov    %rbx,%rsi
  411f0e:	48 89 c7             	mov    %rax,%rdi
  411f11:	e8 8b 92 00 00       	callq  41b1a1 <_ZN2cvrsIiEEvRKNS_8FileNodeERT_>
  411f16:	48 8b 85 d8 fe ff ff 	mov    -0x128(%rbp),%rax
  411f1d:	48 8d 58 30          	lea    0x30(%rax),%rbx
  411f21:	48 8d 45 90          	lea    -0x70(%rbp),%rax
  411f25:	48 8b 8d d0 fe ff ff 	mov    -0x130(%rbp),%rcx
  411f2c:	ba c3 9e 42 00       	mov    $0x429ec3,%edx
  411f31:	48 89 ce             	mov    %rcx,%rsi
  411f34:	48 89 c7             	mov    %rax,%rdi
  411f37:	e8 e4 de ff ff       	callq  40fe20 <_ZNK2cv8FileNodeixEPKc@plt>
  411f3c:	48 8d 45 90          	lea    -0x70(%rbp),%rax
  411f40:	48 89 de             	mov    %rbx,%rsi
  411f43:	48 89 c7             	mov    %rax,%rdi
  411f46:	e8 85 92 00 00       	callq  41b1d0 <_ZN2cvrsIdEEvRKNS_8FileNodeERT_>
  411f4b:	48 8b 85 d8 fe ff ff 	mov    -0x128(%rbp),%rax
  411f52:	48 8d 58 38          	lea    0x38(%rax),%rbx
  411f56:	48 8d 45 90          	lea    -0x70(%rbp),%rax
  411f5a:	48 8b 8d d0 fe ff ff 	mov    -0x130(%rbp),%rcx
  411f61:	ba cc 9e 42 00       	mov    $0x429ecc,%edx
  411f66:	48 89 ce             	mov    %rcx,%rsi
  411f69:	48 89 c7             	mov    %rax,%rdi
  411f6c:	e8 af de ff ff       	callq  40fe20 <_ZNK2cv8FileNodeixEPKc@plt>
  411f71:	48 8d 45 90          	lea    -0x70(%rbp),%rax
  411f75:	48 89 de             	mov    %rbx,%rsi
  411f78:	48 89 c7             	mov    %rax,%rdi
  411f7b:	e8 21 92 00 00       	callq  41b1a1 <_ZN2cvrsIiEEvRKNS_8FileNodeERT_>
  411f80:	48 8b 85 d8 fe ff ff 	mov    -0x128(%rbp),%rax
  411f87:	48 8d 58 40          	lea    0x40(%rax),%rbx
  411f8b:	48 8d 45 90          	lea    -0x70(%rbp),%rax
  411f8f:	48 8b 8d d0 fe ff ff 	mov    -0x130(%rbp),%rcx
  411f96:	ba de 9e 42 00       	mov    $0x429ede,%edx
  411f9b:	48 89 ce             	mov    %rcx,%rsi
  411f9e:	48 89 c7             	mov    %rax,%rdi
  411fa1:	e8 7a de ff ff       	callq  40fe20 <_ZNK2cv8FileNodeixEPKc@plt>
  411fa6:	48 8d 45 90          	lea    -0x70(%rbp),%rax
  411faa:	48 89 de             	mov    %rbx,%rsi
  411fad:	48 89 c7             	mov    %rax,%rdi
  411fb0:	e8 1b 92 00 00       	callq  41b1d0 <_ZN2cvrsIdEEvRKNS_8FileNodeERT_>
  411fb5:	48 8b 85 d8 fe ff ff 	mov    -0x128(%rbp),%rax
  411fbc:	48 8d 58 48          	lea    0x48(%rax),%rbx
  411fc0:	48 8d 45 90          	lea    -0x70(%rbp),%rax
  411fc4:	48 8b 8d d0 fe ff ff 	mov    -0x130(%rbp),%rcx
  411fcb:	ba ed 9e 42 00       	mov    $0x429eed,%edx
  411fd0:	48 89 ce             	mov    %rcx,%rsi
  411fd3:	48 89 c7             	mov    %rax,%rdi
  411fd6:	e8 45 de ff ff       	callq  40fe20 <_ZNK2cv8FileNodeixEPKc@plt>
  411fdb:	48 8d 45 90          	lea    -0x70(%rbp),%rax
  411fdf:	48 89 de             	mov    %rbx,%rsi
  411fe2:	48 89 c7             	mov    %rax,%rdi
  411fe5:	e8 14 92 00 00       	callq  41b1fe <_ZN2cvrsIbEEvRKNS_8FileNodeERT_>
  411fea:	48 8b 85 d8 fe ff ff 	mov    -0x128(%rbp),%rax
  411ff1:	48 8d 58 68          	lea    0x68(%rax),%rbx
  411ff5:	48 8d 45 90          	lea    -0x70(%rbp),%rax
  411ff9:	48 8b 8d d0 fe ff ff 	mov    -0x130(%rbp),%rcx
  412000:	ba fd 9e 42 00       	mov    $0x429efd,%edx
  412005:	48 89 ce             	mov    %rcx,%rsi
  412008:	48 89 c7             	mov    %rax,%rdi
  41200b:	e8 10 de ff ff       	callq  40fe20 <_ZNK2cv8FileNodeixEPKc@plt>
  412010:	48 8d 45 90          	lea    -0x70(%rbp),%rax
  412014:	48 89 de             	mov    %rbx,%rsi
  412017:	48 89 c7             	mov    %rax,%rdi
  41201a:	e8 82 91 00 00       	callq  41b1a1 <_ZN2cvrsIiEEvRKNS_8FileNodeERT_>
  41201f:	48 8d 85 20 ff ff ff 	lea    -0xe0(%rbp),%rax
  412026:	48 8b 8d d0 fe ff ff 	mov    -0x130(%rbp),%rcx
  41202d:	ba 05 9f 42 00       	mov    $0x429f05,%edx
  412032:	48 89 ce             	mov    %rcx,%rsi
  412035:	48 89 c7             	mov    %rax,%rdi
  412038:	e8 e3 dd ff ff       	callq  40fe20 <_ZNK2cv8FileNodeixEPKc@plt>
  41203d:	48 8d 85 20 ff ff ff 	lea    -0xe0(%rbp),%rax
  412044:	48 89 c7             	mov    %rax,%rdi
  412047:	e8 ae a6 00 00       	callq  41c6fa <_ZNK2cv8FileNode5isSeqEv>
  41204c:	84 c0                	test   %al,%al
  41204e:	0f 84 53 01 00 00    	je     4121a7 <_ZN14HOGDescriptor24readERN2cv8FileNodeE+0x635>
  412054:	48 8b 85 d8 fe ff ff 	mov    -0x128(%rbp),%rax
  41205b:	48 8d 50 50          	lea    0x50(%rax),%rdx
  41205f:	48 8d 85 20 ff ff ff 	lea    -0xe0(%rbp),%rax
  412066:	48 89 d6             	mov    %rdx,%rsi
  412069:	48 89 c7             	mov    %rax,%rdi
  41206c:	e8 bc 91 00 00       	callq  41b22d <_ZN2cvrsIfEEvRKNS_8FileNodeERSt6vectorIT_SaIS5_EE>
  412071:	48 8b 85 d8 fe ff ff 	mov    -0x128(%rbp),%rax
  412078:	48 89 c7             	mov    %rax,%rdi
  41207b:	e8 18 f8 ff ff       	callq  411898 <_ZNK14HOGDescriptor217checkDetectorSizeEv>
  412080:	84 c0                	test   %al,%al
  412082:	0f 85 1f 01 00 00    	jne    4121a7 <_ZN14HOGDescriptor24readERN2cv8FileNodeE+0x635>
  412088:	48 8d 85 ef fe ff ff 	lea    -0x111(%rbp),%rax
  41208f:	48 89 c7             	mov    %rax,%rdi
  412092:	e8 c9 e0 ff ff       	callq  410160 <_ZNSaIcEC1Ev@plt>
  412097:	48 8d 95 ef fe ff ff 	lea    -0x111(%rbp),%rdx
  41209e:	48 8d 85 10 ff ff ff 	lea    -0xf0(%rbp),%rax
  4120a5:	be 19 9d 42 00       	mov    $0x429d19,%esi
  4120aa:	48 89 c7             	mov    %rax,%rdi
  4120ad:	e8 de e1 ff ff       	callq  410290 <_ZNSsC1EPKcRKSaIcE@plt>
  4120b2:	48 8d 85 ee fe ff ff 	lea    -0x112(%rbp),%rax
  4120b9:	48 89 c7             	mov    %rax,%rdi
  4120bc:	e8 9f e0 ff ff       	callq  410160 <_ZNSaIcEC1Ev@plt>
  4120c1:	48 8d 95 ee fe ff ff 	lea    -0x112(%rbp),%rdx
  4120c8:	48 8d 85 00 ff ff ff 	lea    -0x100(%rbp),%rax
  4120cf:	be 61 a3 42 00       	mov    $0x42a361,%esi
  4120d4:	48 89 c7             	mov    %rax,%rdi
  4120d7:	e8 b4 e1 ff ff       	callq  410290 <_ZNSsC1EPKcRKSaIcE@plt>
  4120dc:	48 8d 85 ed fe ff ff 	lea    -0x113(%rbp),%rax
  4120e3:	48 89 c7             	mov    %rax,%rdi
  4120e6:	e8 75 e0 ff ff       	callq  410160 <_ZNSaIcEC1Ev@plt>
  4120eb:	48 8d 95 ed fe ff ff 	lea    -0x113(%rbp),%rdx
  4120f2:	48 8d 85 f0 fe ff ff 	lea    -0x110(%rbp),%rax
  4120f9:	be 74 9e 42 00       	mov    $0x429e74,%esi
  4120fe:	48 89 c7             	mov    %rax,%rdi
  412101:	e8 8a e1 ff ff       	callq  410290 <_ZNSsC1EPKcRKSaIcE@plt>
  412106:	48 8d b5 10 ff ff ff 	lea    -0xf0(%rbp),%rsi
  41210d:	48 8d 8d 00 ff ff ff 	lea    -0x100(%rbp),%rcx
  412114:	48 8d 95 f0 fe ff ff 	lea    -0x110(%rbp),%rdx
  41211b:	48 8d 45 90          	lea    -0x70(%rbp),%rax
  41211f:	41 b9 73 01 00 00    	mov    $0x173,%r9d
  412125:	49 89 f0             	mov    %rsi,%r8
  412128:	be 29 ff ff ff       	mov    $0xffffff29,%esi
  41212d:	48 89 c7             	mov    %rax,%rdi
  412130:	e8 bb dd ff ff       	callq  40fef0 <_ZN2cv9ExceptionC1EiRKSsS2_S2_i@plt>
  412135:	48 8d 45 90          	lea    -0x70(%rbp),%rax
  412139:	48 89 c7             	mov    %rax,%rdi
  41213c:	e8 1f de ff ff       	callq  40ff60 <_ZN2cv5errorERKNS_9ExceptionE@plt>
  412141:	48 8d 45 90          	lea    -0x70(%rbp),%rax
  412145:	48 89 c7             	mov    %rax,%rdi
  412148:	e8 e3 de ff ff       	callq  410030 <_ZN2cv9ExceptionD1Ev@plt>
  41214d:	48 8d 85 f0 fe ff ff 	lea    -0x110(%rbp),%rax
  412154:	48 89 c7             	mov    %rax,%rdi
  412157:	e8 24 e1 ff ff       	callq  410280 <_ZNSsD1Ev@plt>
  41215c:	48 8d 85 ed fe ff ff 	lea    -0x113(%rbp),%rax
  412163:	48 89 c7             	mov    %rax,%rdi
  412166:	e8 45 e1 ff ff       	callq  4102b0 <_ZNSaIcED1Ev@plt>
  41216b:	48 8d 85 00 ff ff ff 	lea    -0x100(%rbp),%rax
  412172:	48 89 c7             	mov    %rax,%rdi
  412175:	e8 06 e1 ff ff       	callq  410280 <_ZNSsD1Ev@plt>
  41217a:	48 8d 85 ee fe ff ff 	lea    -0x112(%rbp),%rax
  412181:	48 89 c7             	mov    %rax,%rdi
  412184:	e8 27 e1 ff ff       	callq  4102b0 <_ZNSaIcED1Ev@plt>
  412189:	48 8d 85 10 ff ff ff 	lea    -0xf0(%rbp),%rax
  412190:	48 89 c7             	mov    %rax,%rdi
  412193:	e8 e8 e0 ff ff       	callq  410280 <_ZNSsD1Ev@plt>
  412198:	48 8d 85 ef fe ff ff 	lea    -0x111(%rbp),%rax
  41219f:	48 89 c7             	mov    %rax,%rdi
  4121a2:	e8 09 e1 ff ff       	callq  4102b0 <_ZNSaIcED1Ev@plt>
  4121a7:	b8 01 00 00 00       	mov    $0x1,%eax
  4121ac:	e9 88 00 00 00       	jmpq   412239 <_ZN14HOGDescriptor24readERN2cv8FileNodeE+0x6c7>
  4121b1:	48 89 c3             	mov    %rax,%rbx
  4121b4:	48 8d 45 90          	lea    -0x70(%rbp),%rax
  4121b8:	48 89 c7             	mov    %rax,%rdi
  4121bb:	e8 70 de ff ff       	callq  410030 <_ZN2cv9ExceptionD1Ev@plt>
  4121c0:	eb 03                	jmp    4121c5 <_ZN14HOGDescriptor24readERN2cv8FileNodeE+0x653>
  4121c2:	48 89 c3             	mov    %rax,%rbx
  4121c5:	48 8d 85 f0 fe ff ff 	lea    -0x110(%rbp),%rax
  4121cc:	48 89 c7             	mov    %rax,%rdi
  4121cf:	e8 ac e0 ff ff       	callq  410280 <_ZNSsD1Ev@plt>
  4121d4:	eb 03                	jmp    4121d9 <_ZN14HOGDescriptor24readERN2cv8FileNodeE+0x667>
  4121d6:	48 89 c3             	mov    %rax,%rbx
  4121d9:	48 8d 85 ed fe ff ff 	lea    -0x113(%rbp),%rax
  4121e0:	48 89 c7             	mov    %rax,%rdi
  4121e3:	e8 c8 e0 ff ff       	callq  4102b0 <_ZNSaIcED1Ev@plt>
  4121e8:	48 8d 85 00 ff ff ff 	lea    -0x100(%rbp),%rax
  4121ef:	48 89 c7             	mov    %rax,%rdi
  4121f2:	e8 89 e0 ff ff       	callq  410280 <_ZNSsD1Ev@plt>
  4121f7:	eb 03                	jmp    4121fc <_ZN14HOGDescriptor24readERN2cv8FileNodeE+0x68a>
  4121f9:	48 89 c3             	mov    %rax,%rbx
  4121fc:	48 8d 85 ee fe ff ff 	lea    -0x112(%rbp),%rax
  412203:	48 89 c7             	mov    %rax,%rdi
  412206:	e8 a5 e0 ff ff       	callq  4102b0 <_ZNSaIcED1Ev@plt>
  41220b:	48 8d 85 10 ff ff ff 	lea    -0xf0(%rbp),%rax
  412212:	48 89 c7             	mov    %rax,%rdi
  412215:	e8 66 e0 ff ff       	callq  410280 <_ZNSsD1Ev@plt>
  41221a:	eb 03                	jmp    41221f <_ZN14HOGDescriptor24readERN2cv8FileNodeE+0x6ad>
  41221c:	48 89 c3             	mov    %rax,%rbx
  41221f:	48 8d 85 ef fe ff ff 	lea    -0x111(%rbp),%rax
  412226:	48 89 c7             	mov    %rax,%rdi
  412229:	e8 82 e0 ff ff       	callq  4102b0 <_ZNSaIcED1Ev@plt>
  41222e:	48 89 d8             	mov    %rbx,%rax
  412231:	48 89 c7             	mov    %rax,%rdi
  412234:	e8 57 dd ff ff       	callq  40ff90 <_Unwind_Resume@plt>
  412239:	48 81 c4 28 01 00 00 	add    $0x128,%rsp
  412240:	5b                   	pop    %rbx
  412241:	5d                   	pop    %rbp
  412242:	c3                   	retq   
  412243:	90                   	nop

0000000000412244 <_ZNK14HOGDescriptor25writeERN2cv11FileStorageERKSs>:
  412244:	55                   	push   %rbp
  412245:	48 89 e5             	mov    %rsp,%rbp
  412248:	41 57                	push   %r15
  41224a:	41 56                	push   %r14
  41224c:	41 55                	push   %r13
  41224e:	41 54                	push   %r12
  412250:	53                   	push   %rbx
  412251:	48 83 ec 58          	sub    $0x58,%rsp
  412255:	e8 a6 de ff ff       	callq  410100 <mcount@plt>
  41225a:	48 89 7d b8          	mov    %rdi,-0x48(%rbp)
  41225e:	48 89 75 b0          	mov    %rsi,-0x50(%rbp)
  412262:	48 89 55 a8          	mov    %rdx,-0x58(%rbp)
  412266:	48 8b 45 a8          	mov    -0x58(%rbp),%rax
  41226a:	48 89 c7             	mov    %rax,%rdi
  41226d:	e8 9e dd ff ff       	callq  410010 <_ZNKSs5emptyEv@plt>
  412272:	83 f0 01             	xor    $0x1,%eax
  412275:	84 c0                	test   %al,%al
  412277:	74 13                	je     41228c <_ZNK14HOGDescriptor25writeERN2cv11FileStorageERKSs+0x48>
  412279:	48 8b 55 a8          	mov    -0x58(%rbp),%rdx
  41227d:	48 8b 45 b0          	mov    -0x50(%rbp),%rax
  412281:	48 89 d6             	mov    %rdx,%rsi
  412284:	48 89 c7             	mov    %rax,%rdi
  412287:	e8 74 df ff ff       	callq  410200 <_ZN2cvlsERNS_11FileStorageERKSs@plt>
  41228c:	48 8b 45 b8          	mov    -0x48(%rbp),%rax
  412290:	48 8d 58 68          	lea    0x68(%rax),%rbx
  412294:	48 8b 45 b8          	mov    -0x48(%rbp),%rax
  412298:	4c 8d 60 48          	lea    0x48(%rax),%r12
  41229c:	48 8b 45 b8          	mov    -0x48(%rbp),%rax
  4122a0:	4c 8d 68 40          	lea    0x40(%rax),%r13
  4122a4:	48 8b 45 b8          	mov    -0x48(%rbp),%rax
  4122a8:	4c 8d 70 38          	lea    0x38(%rax),%r14
  4122ac:	48 8b 45 b8          	mov    -0x48(%rbp),%rax
  4122b0:	48 89 c7             	mov    %rax,%rdi
  4122b3:	e8 7e f5 ff ff       	callq  411836 <_ZNK14HOGDescriptor211getWinSigmaEv>
  4122b8:	f2 0f 11 45 a0       	movsd  %xmm0,-0x60(%rbp)
  4122bd:	48 8b 45 a0          	mov    -0x60(%rbp),%rax
  4122c1:	48 89 45 c8          	mov    %rax,-0x38(%rbp)
  4122c5:	48 8b 45 b8          	mov    -0x48(%rbp),%rax
  4122c9:	4c 8d 78 2c          	lea    0x2c(%rax),%r15
  4122cd:	48 8b 45 b8          	mov    -0x48(%rbp),%rax
  4122d1:	48 83 c0 28          	add    $0x28,%rax
  4122d5:	48 89 45 a0          	mov    %rax,-0x60(%rbp)
  4122d9:	48 8b 45 b8          	mov    -0x48(%rbp),%rax
  4122dd:	48 8d 48 20          	lea    0x20(%rax),%rcx
  4122e1:	48 89 4d 98          	mov    %rcx,-0x68(%rbp)
  4122e5:	48 8b 45 b8          	mov    -0x48(%rbp),%rax
  4122e9:	48 8d 50 18          	lea    0x18(%rax),%rdx
  4122ed:	48 89 55 90          	mov    %rdx,-0x70(%rbp)
  4122f1:	48 8b 45 b8          	mov    -0x48(%rbp),%rax
  4122f5:	48 8d 78 10          	lea    0x10(%rax),%rdi
  4122f9:	48 89 7d 88          	mov    %rdi,-0x78(%rbp)
  4122fd:	48 8b 45 b8          	mov    -0x48(%rbp),%rax
  412301:	4c 8d 40 08          	lea    0x8(%rax),%r8
  412305:	4c 89 45 80          	mov    %r8,-0x80(%rbp)
  412309:	48 8b 45 b0          	mov    -0x50(%rbp),%rax
  41230d:	be 11 9f 42 00       	mov    $0x429f11,%esi
  412312:	48 89 c7             	mov    %rax,%rdi
  412315:	e8 51 e1 ff ff       	callq  41046b <_ZN2cvlsERNS_11FileStorageEPKc>
  41231a:	be 88 9e 42 00       	mov    $0x429e88,%esi
  41231f:	48 89 c7             	mov    %rax,%rdi
  412322:	e8 44 e1 ff ff       	callq  41046b <_ZN2cvlsERNS_11FileStorageEPKc>
  412327:	48 8b 75 80          	mov    -0x80(%rbp),%rsi
  41232b:	48 89 c7             	mov    %rax,%rdi
  41232e:	e8 37 8f 00 00       	callq  41b26a <_ZN2cvlsINS_5Size_IiEEEERNS_11FileStorageES4_RKT_>
  412333:	be 90 9e 42 00       	mov    $0x429e90,%esi
  412338:	48 89 c7             	mov    %rax,%rdi
  41233b:	e8 2b e1 ff ff       	callq  41046b <_ZN2cvlsERNS_11FileStorageEPKc>
  412340:	48 8b 75 88          	mov    -0x78(%rbp),%rsi
  412344:	48 89 c7             	mov    %rax,%rdi
  412347:	e8 1e 8f 00 00       	callq  41b26a <_ZN2cvlsINS_5Size_IiEEEERNS_11FileStorageES4_RKT_>
  41234c:	be 9a 9e 42 00       	mov    $0x429e9a,%esi
  412351:	48 89 c7             	mov    %rax,%rdi
  412354:	e8 12 e1 ff ff       	callq  41046b <_ZN2cvlsERNS_11FileStorageEPKc>
  412359:	48 8b 75 90          	mov    -0x70(%rbp),%rsi
  41235d:	48 89 c7             	mov    %rax,%rdi
  412360:	e8 05 8f 00 00       	callq  41b26a <_ZN2cvlsINS_5Size_IiEEEERNS_11FileStorageES4_RKT_>
  412365:	be a6 9e 42 00       	mov    $0x429ea6,%esi
  41236a:	48 89 c7             	mov    %rax,%rdi
  41236d:	e8 f9 e0 ff ff       	callq  41046b <_ZN2cvlsERNS_11FileStorageEPKc>
  412372:	48 8b 75 98          	mov    -0x68(%rbp),%rsi
  412376:	48 89 c7             	mov    %rax,%rdi
  412379:	e8 ec 8e 00 00       	callq  41b26a <_ZN2cvlsINS_5Size_IiEEEERNS_11FileStorageES4_RKT_>
  41237e:	be af 9e 42 00       	mov    $0x429eaf,%esi
  412383:	48 89 c7             	mov    %rax,%rdi
  412386:	e8 e0 e0 ff ff       	callq  41046b <_ZN2cvlsERNS_11FileStorageEPKc>
  41238b:	48 8b 75 a0          	mov    -0x60(%rbp),%rsi
  41238f:	48 89 c7             	mov    %rax,%rdi
  412392:	e8 0e 91 00 00       	callq  41b4a5 <_ZN2cvlsIiEERNS_11FileStorageES2_RKT_>
  412397:	be b5 9e 42 00       	mov    $0x429eb5,%esi
  41239c:	48 89 c7             	mov    %rax,%rdi
  41239f:	e8 c7 e0 ff ff       	callq  41046b <_ZN2cvlsERNS_11FileStorageEPKc>
  4123a4:	4c 89 fe             	mov    %r15,%rsi
  4123a7:	48 89 c7             	mov    %rax,%rdi
  4123aa:	e8 f6 90 00 00       	callq  41b4a5 <_ZN2cvlsIiEERNS_11FileStorageES2_RKT_>
  4123af:	be c3 9e 42 00       	mov    $0x429ec3,%esi
  4123b4:	48 89 c7             	mov    %rax,%rdi
  4123b7:	e8 af e0 ff ff       	callq  41046b <_ZN2cvlsERNS_11FileStorageEPKc>
  4123bc:	48 8d 55 c8          	lea    -0x38(%rbp),%rdx
  4123c0:	48 89 d6             	mov    %rdx,%rsi
  4123c3:	48 89 c7             	mov    %rax,%rdi
  4123c6:	e8 17 93 00 00       	callq  41b6e2 <_ZN2cvlsIdEERNS_11FileStorageES2_RKT_>
  4123cb:	be cc 9e 42 00       	mov    $0x429ecc,%esi
  4123d0:	48 89 c7             	mov    %rax,%rdi
  4123d3:	e8 93 e0 ff ff       	callq  41046b <_ZN2cvlsERNS_11FileStorageEPKc>
  4123d8:	4c 89 f6             	mov    %r14,%rsi
  4123db:	48 89 c7             	mov    %rax,%rdi
  4123de:	e8 c2 90 00 00       	callq  41b4a5 <_ZN2cvlsIiEERNS_11FileStorageES2_RKT_>
  4123e3:	be de 9e 42 00       	mov    $0x429ede,%esi
  4123e8:	48 89 c7             	mov    %rax,%rdi
  4123eb:	e8 7b e0 ff ff       	callq  41046b <_ZN2cvlsERNS_11FileStorageEPKc>
  4123f0:	4c 89 ee             	mov    %r13,%rsi
  4123f3:	48 89 c7             	mov    %rax,%rdi
  4123f6:	e8 e7 92 00 00       	callq  41b6e2 <_ZN2cvlsIdEERNS_11FileStorageES2_RKT_>
  4123fb:	be ed 9e 42 00       	mov    $0x429eed,%esi
  412400:	48 89 c7             	mov    %rax,%rdi
  412403:	e8 63 e0 ff ff       	callq  41046b <_ZN2cvlsERNS_11FileStorageEPKc>
  412408:	4c 89 e6             	mov    %r12,%rsi
  41240b:	48 89 c7             	mov    %rax,%rdi
  41240e:	e8 1c 95 00 00       	callq  41b92f <_ZN2cvlsIbEERNS_11FileStorageES2_RKT_>
  412413:	be fd 9e 42 00       	mov    $0x429efd,%esi
  412418:	48 89 c7             	mov    %rax,%rdi
  41241b:	e8 4b e0 ff ff       	callq  41046b <_ZN2cvlsERNS_11FileStorageEPKc>
  412420:	48 89 de             	mov    %rbx,%rsi
  412423:	48 89 c7             	mov    %rax,%rdi
  412426:	e8 7a 90 00 00       	callq  41b4a5 <_ZN2cvlsIiEERNS_11FileStorageES2_RKT_>
  41242b:	48 8b 45 b8          	mov    -0x48(%rbp),%rax
  41242f:	48 83 c0 50          	add    $0x50,%rax
  412433:	48 89 c7             	mov    %rax,%rdi
  412436:	e8 af c6 00 00       	callq  41eaea <_ZNKSt6vectorIfSaIfEE5emptyEv>
  41243b:	83 f0 01             	xor    $0x1,%eax
  41243e:	84 c0                	test   %al,%al
  412440:	74 24                	je     412466 <_ZNK14HOGDescriptor25writeERN2cv11FileStorageERKSs+0x222>
  412442:	48 8b 45 b8          	mov    -0x48(%rbp),%rax
  412446:	48 8d 58 50          	lea    0x50(%rax),%rbx
  41244a:	48 8b 45 b0          	mov    -0x50(%rbp),%rax
  41244e:	be 05 9f 42 00       	mov    $0x429f05,%esi
  412453:	48 89 c7             	mov    %rax,%rdi
  412456:	e8 10 e0 ff ff       	callq  41046b <_ZN2cvlsERNS_11FileStorageEPKc>
  41245b:	48 89 de             	mov    %rbx,%rsi
  41245e:	48 89 c7             	mov    %rax,%rdi
  412461:	e8 0a 97 00 00       	callq  41bb70 <_ZN2cvlsISt6vectorIfSaIfEEEERNS_11FileStorageES5_RKT_>
  412466:	48 8b 45 b0          	mov    -0x50(%rbp),%rax
  41246a:	be 2d 9f 42 00       	mov    $0x429f2d,%esi
  41246f:	48 89 c7             	mov    %rax,%rdi
  412472:	e8 f4 df ff ff       	callq  41046b <_ZN2cvlsERNS_11FileStorageEPKc>
  412477:	48 83 c4 58          	add    $0x58,%rsp
  41247b:	5b                   	pop    %rbx
  41247c:	41 5c                	pop    %r12
  41247e:	41 5d                	pop    %r13
  412480:	41 5e                	pop    %r14
  412482:	41 5f                	pop    %r15
  412484:	5d                   	pop    %rbp
  412485:	c3                   	retq   

0000000000412486 <_ZN14HOGDescriptor24loadERKSsS1_>:
  412486:	55                   	push   %rbp
  412487:	48 89 e5             	mov    %rsp,%rbp
  41248a:	53                   	push   %rbx
  41248b:	48 83 ec 78          	sub    $0x78,%rsp
  41248f:	e8 6c dc ff ff       	callq  410100 <mcount@plt>
  412494:	48 89 7d 98          	mov    %rdi,-0x68(%rbp)
  412498:	48 89 75 90          	mov    %rsi,-0x70(%rbp)
  41249c:	48 89 55 88          	mov    %rdx,-0x78(%rbp)
  4124a0:	48 8d 45 a0          	lea    -0x60(%rbp),%rax
  4124a4:	48 89 c7             	mov    %rax,%rdi
  4124a7:	e8 b4 d8 ff ff       	callq  40fd60 <_ZNSsC1Ev@plt>
  4124ac:	48 8d 55 a0          	lea    -0x60(%rbp),%rdx
  4124b0:	48 8b 75 90          	mov    -0x70(%rbp),%rsi
  4124b4:	48 8d 45 b0          	lea    -0x50(%rbp),%rax
  4124b8:	48 89 d1             	mov    %rdx,%rcx
  4124bb:	ba 00 00 00 00       	mov    $0x0,%edx
  4124c0:	48 89 c7             	mov    %rax,%rdi
  4124c3:	e8 68 dd ff ff       	callq  410230 <_ZN2cv11FileStorageC1ERKSsiS2_@plt>
  4124c8:	48 8d 45 a0          	lea    -0x60(%rbp),%rax
  4124cc:	48 89 c7             	mov    %rax,%rdi
  4124cf:	e8 ac dd ff ff       	callq  410280 <_ZNSsD1Ev@plt>
  4124d4:	48 8b 45 88          	mov    -0x78(%rbp),%rax
  4124d8:	48 89 c7             	mov    %rax,%rdi
  4124db:	e8 30 db ff ff       	callq  410010 <_ZNKSs5emptyEv@plt>
  4124e0:	83 f0 01             	xor    $0x1,%eax
  4124e3:	84 c0                	test   %al,%al
  4124e5:	74 19                	je     412500 <_ZN14HOGDescriptor24loadERKSsS1_+0x7a>
  4124e7:	48 8d 45 a0          	lea    -0x60(%rbp),%rax
  4124eb:	48 8b 55 88          	mov    -0x78(%rbp),%rdx
  4124ef:	48 8d 4d b0          	lea    -0x50(%rbp),%rcx
  4124f3:	48 89 ce             	mov    %rcx,%rsi
  4124f6:	48 89 c7             	mov    %rax,%rdi
  4124f9:	e8 82 da ff ff       	callq  40ff80 <_ZNK2cv11FileStorageixERKSs@plt>
  4124fe:	eb 13                	jmp    412513 <_ZN14HOGDescriptor24loadERKSsS1_+0x8d>
  412500:	48 8d 45 a0          	lea    -0x60(%rbp),%rax
  412504:	48 8d 55 b0          	lea    -0x50(%rbp),%rdx
  412508:	48 89 d6             	mov    %rdx,%rsi
  41250b:	48 89 c7             	mov    %rax,%rdi
  41250e:	e8 55 a3 00 00       	callq  41c868 <_ZNK2cv11FileStorage20getFirstTopLevelNodeEv>
  412513:	48 8b 45 98          	mov    -0x68(%rbp),%rax
  412517:	48 8b 00             	mov    (%rax),%rax
  41251a:	48 83 c0 18          	add    $0x18,%rax
  41251e:	48 8b 00             	mov    (%rax),%rax
  412521:	48 8d 4d a0          	lea    -0x60(%rbp),%rcx
  412525:	48 8b 55 98          	mov    -0x68(%rbp),%rdx
  412529:	48 89 ce             	mov    %rcx,%rsi
  41252c:	48 89 d7             	mov    %rdx,%rdi
  41252f:	ff d0                	callq  *%rax
  412531:	89 c3                	mov    %eax,%ebx
  412533:	48 8d 45 b0          	lea    -0x50(%rbp),%rax
  412537:	48 89 c7             	mov    %rax,%rdi
  41253a:	e8 81 d8 ff ff       	callq  40fdc0 <_ZN2cv11FileStorageD1Ev@plt>
  41253f:	89 d8                	mov    %ebx,%eax
  412541:	eb 4e                	jmp    412591 <_ZN14HOGDescriptor24loadERKSsS1_+0x10b>
  412543:	48 89 c3             	mov    %rax,%rbx
  412546:	48 8d 45 a0          	lea    -0x60(%rbp),%rax
  41254a:	48 89 c7             	mov    %rax,%rdi
  41254d:	e8 2e dd ff ff       	callq  410280 <_ZNSsD1Ev@plt>
  412552:	48 89 d8             	mov    %rbx,%rax
  412555:	48 89 c7             	mov    %rax,%rdi
  412558:	e8 33 da ff ff       	callq  40ff90 <_Unwind_Resume@plt>
  41255d:	48 89 c3             	mov    %rax,%rbx
  412560:	48 8d 45 b0          	lea    -0x50(%rbp),%rax
  412564:	48 89 c7             	mov    %rax,%rdi
  412567:	e8 54 d8 ff ff       	callq  40fdc0 <_ZN2cv11FileStorageD1Ev@plt>
  41256c:	48 89 d8             	mov    %rbx,%rax
  41256f:	48 89 c7             	mov    %rax,%rdi
  412572:	e8 19 da ff ff       	callq  40ff90 <_Unwind_Resume@plt>
  412577:	48 89 c3             	mov    %rax,%rbx
  41257a:	48 8d 45 b0          	lea    -0x50(%rbp),%rax
  41257e:	48 89 c7             	mov    %rax,%rdi
  412581:	e8 3a d8 ff ff       	callq  40fdc0 <_ZN2cv11FileStorageD1Ev@plt>
  412586:	48 89 d8             	mov    %rbx,%rax
  412589:	48 89 c7             	mov    %rax,%rdi
  41258c:	e8 ff d9 ff ff       	callq  40ff90 <_Unwind_Resume@plt>
  412591:	48 83 c4 78          	add    $0x78,%rsp
  412595:	5b                   	pop    %rbx
  412596:	5d                   	pop    %rbp
  412597:	c3                   	retq   

0000000000412598 <_ZNK14HOGDescriptor24saveERKSsS1_>:
  412598:	55                   	push   %rbp
  412599:	48 89 e5             	mov    %rsp,%rbp
  41259c:	53                   	push   %rbx
  41259d:	48 83 ec 78          	sub    $0x78,%rsp
  4125a1:	e8 5a db ff ff       	callq  410100 <mcount@plt>
  4125a6:	48 89 7d 98          	mov    %rdi,-0x68(%rbp)
  4125aa:	48 89 75 90          	mov    %rsi,-0x70(%rbp)
  4125ae:	48 89 55 88          	mov    %rdx,-0x78(%rbp)
  4125b2:	48 8d 45 a0          	lea    -0x60(%rbp),%rax
  4125b6:	48 89 c7             	mov    %rax,%rdi
  4125b9:	e8 a2 d7 ff ff       	callq  40fd60 <_ZNSsC1Ev@plt>
  4125be:	48 8d 55 a0          	lea    -0x60(%rbp),%rdx
  4125c2:	48 8b 75 90          	mov    -0x70(%rbp),%rsi
  4125c6:	48 8d 45 b0          	lea    -0x50(%rbp),%rax
  4125ca:	48 89 d1             	mov    %rdx,%rcx
  4125cd:	ba 01 00 00 00       	mov    $0x1,%edx
  4125d2:	48 89 c7             	mov    %rax,%rdi
  4125d5:	e8 56 dc ff ff       	callq  410230 <_ZN2cv11FileStorageC1ERKSsiS2_@plt>
  4125da:	48 8d 45 a0          	lea    -0x60(%rbp),%rax
  4125de:	48 89 c7             	mov    %rax,%rdi
  4125e1:	e8 9a dc ff ff       	callq  410280 <_ZNSsD1Ev@plt>
  4125e6:	48 8b 45 98          	mov    -0x68(%rbp),%rax
  4125ea:	48 8b 00             	mov    (%rax),%rax
  4125ed:	48 83 c0 20          	add    $0x20,%rax
  4125f1:	48 8b 18             	mov    (%rax),%rbx
  4125f4:	48 8b 45 88          	mov    -0x78(%rbp),%rax
  4125f8:	48 89 c7             	mov    %rax,%rdi
  4125fb:	e8 10 da ff ff       	callq  410010 <_ZNKSs5emptyEv@plt>
  412600:	83 f0 01             	xor    $0x1,%eax
  412603:	84 c0                	test   %al,%al
  412605:	74 15                	je     41261c <_ZNK14HOGDescriptor24saveERKSsS1_+0x84>
  412607:	48 8b 55 88          	mov    -0x78(%rbp),%rdx
  41260b:	48 8d 45 a0          	lea    -0x60(%rbp),%rax
  41260f:	48 89 d6             	mov    %rdx,%rsi
  412612:	48 89 c7             	mov    %rax,%rdi
  412615:	e8 16 d7 ff ff       	callq  40fd30 <_ZNSsC1ERKSs@plt>
  41261a:	eb 13                	jmp    41262f <_ZNK14HOGDescriptor24saveERKSsS1_+0x97>
  41261c:	48 8d 45 a0          	lea    -0x60(%rbp),%rax
  412620:	48 8b 55 90          	mov    -0x70(%rbp),%rdx
  412624:	48 89 d6             	mov    %rdx,%rsi
  412627:	48 89 c7             	mov    %rax,%rdi
  41262a:	e8 a1 d7 ff ff       	callq  40fdd0 <_ZN2cv11FileStorage20getDefaultObjectNameERKSs@plt>
  41262f:	48 8d 55 a0          	lea    -0x60(%rbp),%rdx
  412633:	48 8d 4d b0          	lea    -0x50(%rbp),%rcx
  412637:	48 8b 45 98          	mov    -0x68(%rbp),%rax
  41263b:	48 89 ce             	mov    %rcx,%rsi
  41263e:	48 89 c7             	mov    %rax,%rdi
  412641:	ff d3                	callq  *%rbx
  412643:	48 8d 45 a0          	lea    -0x60(%rbp),%rax
  412647:	48 89 c7             	mov    %rax,%rdi
  41264a:	e8 31 dc ff ff       	callq  410280 <_ZNSsD1Ev@plt>
  41264f:	48 8d 45 b0          	lea    -0x50(%rbp),%rax
  412653:	48 89 c7             	mov    %rax,%rdi
  412656:	e8 65 d7 ff ff       	callq  40fdc0 <_ZN2cv11FileStorageD1Ev@plt>
  41265b:	eb 5f                	jmp    4126bc <_ZNK14HOGDescriptor24saveERKSsS1_+0x124>
  41265d:	48 89 c3             	mov    %rax,%rbx
  412660:	48 8d 45 a0          	lea    -0x60(%rbp),%rax
  412664:	48 89 c7             	mov    %rax,%rdi
  412667:	e8 14 dc ff ff       	callq  410280 <_ZNSsD1Ev@plt>
  41266c:	48 89 d8             	mov    %rbx,%rax
  41266f:	48 89 c7             	mov    %rax,%rdi
  412672:	e8 19 d9 ff ff       	callq  40ff90 <_Unwind_Resume@plt>
  412677:	48 89 c3             	mov    %rax,%rbx
  41267a:	48 8d 45 b0          	lea    -0x50(%rbp),%rax
  41267e:	48 89 c7             	mov    %rax,%rdi
  412681:	e8 3a d7 ff ff       	callq  40fdc0 <_ZN2cv11FileStorageD1Ev@plt>
  412686:	48 89 d8             	mov    %rbx,%rax
  412689:	48 89 c7             	mov    %rax,%rdi
  41268c:	e8 ff d8 ff ff       	callq  40ff90 <_Unwind_Resume@plt>
  412691:	48 89 c3             	mov    %rax,%rbx
  412694:	48 8d 45 a0          	lea    -0x60(%rbp),%rax
  412698:	48 89 c7             	mov    %rax,%rdi
  41269b:	e8 e0 db ff ff       	callq  410280 <_ZNSsD1Ev@plt>
  4126a0:	eb 03                	jmp    4126a5 <_ZNK14HOGDescriptor24saveERKSsS1_+0x10d>
  4126a2:	48 89 c3             	mov    %rax,%rbx
  4126a5:	48 8d 45 b0          	lea    -0x50(%rbp),%rax
  4126a9:	48 89 c7             	mov    %rax,%rdi
  4126ac:	e8 0f d7 ff ff       	callq  40fdc0 <_ZN2cv11FileStorageD1Ev@plt>
  4126b1:	48 89 d8             	mov    %rbx,%rax
  4126b4:	48 89 c7             	mov    %rax,%rdi
  4126b7:	e8 d4 d8 ff ff       	callq  40ff90 <_Unwind_Resume@plt>
  4126bc:	48 83 c4 78          	add    $0x78,%rsp
  4126c0:	5b                   	pop    %rbx
  4126c1:	5d                   	pop    %rbp
  4126c2:	c3                   	retq   
  4126c3:	90                   	nop

00000000004126c4 <_ZNK14HOGDescriptor26copyToERS_>:
  4126c4:	55                   	push   %rbp
  4126c5:	48 89 e5             	mov    %rsp,%rbp
  4126c8:	48 83 ec 10          	sub    $0x10,%rsp
  4126cc:	e8 2f da ff ff       	callq  410100 <mcount@plt>
  4126d1:	48 89 7d f8          	mov    %rdi,-0x8(%rbp)
  4126d5:	48 89 75 f0          	mov    %rsi,-0x10(%rbp)
  4126d9:	48 8b 45 f8          	mov    -0x8(%rbp),%rax
  4126dd:	48 8d 50 08          	lea    0x8(%rax),%rdx
  4126e1:	48 8b 45 f0          	mov    -0x10(%rbp),%rax
  4126e5:	48 83 c0 08          	add    $0x8,%rax
  4126e9:	48 89 d6             	mov    %rdx,%rsi
  4126ec:	48 89 c7             	mov    %rax,%rdi
  4126ef:	e8 3c c4 00 00       	callq  41eb30 <_ZN2cv5Size_IiEaSERKS1_>
  4126f4:	48 8b 45 f8          	mov    -0x8(%rbp),%rax
  4126f8:	48 8d 50 10          	lea    0x10(%rax),%rdx
  4126fc:	48 8b 45 f0          	mov    -0x10(%rbp),%rax
  412700:	48 83 c0 10          	add    $0x10,%rax
  412704:	48 89 d6             	mov    %rdx,%rsi
  412707:	48 89 c7             	mov    %rax,%rdi
  41270a:	e8 21 c4 00 00       	callq  41eb30 <_ZN2cv5Size_IiEaSERKS1_>
  41270f:	48 8b 45 f8          	mov    -0x8(%rbp),%rax
  412713:	48 8d 50 18          	lea    0x18(%rax),%rdx
  412717:	48 8b 45 f0          	mov    -0x10(%rbp),%rax
  41271b:	48 83 c0 18          	add    $0x18,%rax
  41271f:	48 89 d6             	mov    %rdx,%rsi
  412722:	48 89 c7             	mov    %rax,%rdi
  412725:	e8 06 c4 00 00       	callq  41eb30 <_ZN2cv5Size_IiEaSERKS1_>
  41272a:	48 8b 45 f8          	mov    -0x8(%rbp),%rax
  41272e:	48 8d 50 20          	lea    0x20(%rax),%rdx
  412732:	48 8b 45 f0          	mov    -0x10(%rbp),%rax
  412736:	48 83 c0 20          	add    $0x20,%rax
  41273a:	48 89 d6             	mov    %rdx,%rsi
  41273d:	48 89 c7             	mov    %rax,%rdi
  412740:	e8 eb c3 00 00       	callq  41eb30 <_ZN2cv5Size_IiEaSERKS1_>
  412745:	48 8b 45 f8          	mov    -0x8(%rbp),%rax
  412749:	8b 50 28             	mov    0x28(%rax),%edx
  41274c:	48 8b 45 f0          	mov    -0x10(%rbp),%rax
  412750:	89 50 28             	mov    %edx,0x28(%rax)
  412753:	48 8b 45 f8          	mov    -0x8(%rbp),%rax
  412757:	8b 50 2c             	mov    0x2c(%rax),%edx
  41275a:	48 8b 45 f0          	mov    -0x10(%rbp),%rax
  41275e:	89 50 2c             	mov    %edx,0x2c(%rax)
  412761:	48 8b 45 f8          	mov    -0x8(%rbp),%rax
  412765:	48 8b 40 30          	mov    0x30(%rax),%rax
  412769:	48 8b 55 f0          	mov    -0x10(%rbp),%rdx
  41276d:	48 89 42 30          	mov    %rax,0x30(%rdx)
  412771:	48 8b 45 f8          	mov    -0x8(%rbp),%rax
  412775:	8b 50 38             	mov    0x38(%rax),%edx
  412778:	48 8b 45 f0          	mov    -0x10(%rbp),%rax
  41277c:	89 50 38             	mov    %edx,0x38(%rax)
  41277f:	48 8b 45 f8          	mov    -0x8(%rbp),%rax
  412783:	48 8b 40 40          	mov    0x40(%rax),%rax
  412787:	48 8b 55 f0          	mov    -0x10(%rbp),%rdx
  41278b:	48 89 42 40          	mov    %rax,0x40(%rdx)
  41278f:	48 8b 45 f8          	mov    -0x8(%rbp),%rax
  412793:	0f b6 50 48          	movzbl 0x48(%rax),%edx
  412797:	48 8b 45 f0          	mov    -0x10(%rbp),%rax
  41279b:	88 50 48             	mov    %dl,0x48(%rax)
  41279e:	48 8b 45 f8          	mov    -0x8(%rbp),%rax
  4127a2:	48 8d 50 50          	lea    0x50(%rax),%rdx
  4127a6:	48 8b 45 f0          	mov    -0x10(%rbp),%rax
  4127aa:	48 83 c0 50          	add    $0x50,%rax
  4127ae:	48 89 d6             	mov    %rdx,%rsi
  4127b1:	48 89 c7             	mov    %rax,%rdi
  4127b4:	e8 ad c3 00 00       	callq  41eb66 <_ZNSt6vectorIfSaIfEEaSERKS1_>
  4127b9:	48 8b 45 f8          	mov    -0x8(%rbp),%rax
  4127bd:	8b 50 68             	mov    0x68(%rax),%edx
  4127c0:	48 8b 45 f0          	mov    -0x10(%rbp),%rax
  4127c4:	89 50 68             	mov    %edx,0x68(%rax)
  4127c7:	c9                   	leaveq 
  4127c8:	c3                   	retq   
  4127c9:	90                   	nop

00000000004127ca <_ZNK14HOGDescriptor215computeGradientERKN2cv3MatERS1_S4_iiiiiiiiiiiPKfPi>:
  4127ca:	55                   	push   %rbp
  4127cb:	48 89 e5             	mov    %rsp,%rbp
  4127ce:	53                   	push   %rbx
  4127cf:	48 81 ec d8 23 00 00 	sub    $0x23d8,%rsp
  4127d6:	e8 25 d9 ff ff       	callq  410100 <mcount@plt>
  4127db:	48 89 bd 48 dc ff ff 	mov    %rdi,-0x23b8(%rbp)
  4127e2:	48 89 b5 40 dc ff ff 	mov    %rsi,-0x23c0(%rbp)
  4127e9:	48 89 95 38 dc ff ff 	mov    %rdx,-0x23c8(%rbp)
  4127f0:	48 89 8d 30 dc ff ff 	mov    %rcx,-0x23d0(%rbp)
  4127f7:	44 89 85 2c dc ff ff 	mov    %r8d,-0x23d4(%rbp)
  4127fe:	44 89 8d 28 dc ff ff 	mov    %r9d,-0x23d8(%rbp)
  412805:	8b 45 20             	mov    0x20(%rbp),%eax
  412808:	48 98                	cltq   
  41280a:	48 83 c0 02          	add    $0x2,%rax
  41280e:	48 8d 14 85 00 00 00 	lea    0x0(,%rax,4),%rdx
  412815:	00 
  412816:	48 8b 45 60          	mov    0x60(%rbp),%rax
  41281a:	48 01 d0             	add    %rdx,%rax
  41281d:	48 89 85 c8 dc ff ff 	mov    %rax,-0x2338(%rbp)
  412824:	c7 85 84 dc ff ff 04 	movl   $0x4,-0x237c(%rbp)
  41282b:	00 00 00 
  41282e:	c7 85 64 dc ff ff ff 	movl   $0xffffffff,-0x239c(%rbp)
  412835:	ff ff ff 
  412838:	eb 49                	jmp    412883 <_ZNK14HOGDescriptor215computeGradientERKN2cv3MatERS1_S4_iiiiiiiiiiiPKfPi+0xb9>
  41283a:	8b 85 64 dc ff ff    	mov    -0x239c(%rbp),%eax
  412840:	48 98                	cltq   
  412842:	48 8d 14 85 00 00 00 	lea    0x0(,%rax,4),%rdx
  412849:	00 
  41284a:	48 8b 45 60          	mov    0x60(%rbp),%rax
  41284e:	48 8d 1c 02          	lea    (%rdx,%rax,1),%rbx
  412852:	8b 85 2c dc ff ff    	mov    -0x23d4(%rbp),%eax
  412858:	8b 95 64 dc ff ff    	mov    -0x239c(%rbp),%edx
  41285e:	29 c2                	sub    %eax,%edx
  412860:	8b 45 48             	mov    0x48(%rbp),%eax
  412863:	8d 0c 02             	lea    (%rdx,%rax,1),%ecx
  412866:	8b 45 38             	mov    0x38(%rbp),%eax
  412869:	ba 04 00 00 00       	mov    $0x4,%edx
  41286e:	89 c6                	mov    %eax,%esi
  412870:	89 cf                	mov    %ecx,%edi
  412872:	e8 68 ac 00 00       	callq  41d4df <_Z19borderInterpolate_2iii>
  412877:	2b 45 48             	sub    0x48(%rbp),%eax
  41287a:	89 03                	mov    %eax,(%rbx)
  41287c:	83 85 64 dc ff ff 01 	addl   $0x1,-0x239c(%rbp)
  412883:	8b 45 20             	mov    0x20(%rbp),%eax
  412886:	83 c0 01             	add    $0x1,%eax
  412889:	3b 85 64 dc ff ff    	cmp    -0x239c(%rbp),%eax
  41288f:	7f a9                	jg     41283a <_ZNK14HOGDescriptor215computeGradientERKN2cv3MatERS1_S4_iiiiiiiiiiiPKfPi+0x70>
  412891:	c7 85 68 dc ff ff ff 	movl   $0xffffffff,-0x2398(%rbp)
  412898:	ff ff ff 
  41289b:	eb 4c                	jmp    4128e9 <_ZNK14HOGDescriptor215computeGradientERKN2cv3MatERS1_S4_iiiiiiiiiiiPKfPi+0x11f>
  41289d:	8b 85 68 dc ff ff    	mov    -0x2398(%rbp),%eax
  4128a3:	48 98                	cltq   
  4128a5:	48 8d 14 85 00 00 00 	lea    0x0(,%rax,4),%rdx
  4128ac:	00 
  4128ad:	48 8b 85 c8 dc ff ff 	mov    -0x2338(%rbp),%rax
  4128b4:	48 8d 1c 02          	lea    (%rdx,%rax,1),%rbx
  4128b8:	8b 85 28 dc ff ff    	mov    -0x23d8(%rbp),%eax
  4128be:	8b 95 68 dc ff ff    	mov    -0x2398(%rbp),%edx
  4128c4:	29 c2                	sub    %eax,%edx
  4128c6:	8b 45 50             	mov    0x50(%rbp),%eax
  4128c9:	8d 0c 02             	lea    (%rdx,%rax,1),%ecx
  4128cc:	8b 45 40             	mov    0x40(%rbp),%eax
  4128cf:	ba 04 00 00 00       	mov    $0x4,%edx
  4128d4:	89 c6                	mov    %eax,%esi
  4128d6:	89 cf                	mov    %ecx,%edi
  4128d8:	e8 02 ac 00 00       	callq  41d4df <_Z19borderInterpolate_2iii>
  4128dd:	2b 45 50             	sub    0x50(%rbp),%eax
  4128e0:	89 03                	mov    %eax,(%rbx)
  4128e2:	83 85 68 dc ff ff 01 	addl   $0x1,-0x2398(%rbp)
  4128e9:	8b 45 28             	mov    0x28(%rbp),%eax
  4128ec:	83 c0 01             	add    $0x1,%eax
  4128ef:	3b 85 68 dc ff ff    	cmp    -0x2398(%rbp),%eax
  4128f5:	7f a6                	jg     41289d <_ZNK14HOGDescriptor215computeGradientERKN2cv3MatERS1_S4_iiiiiiiiiiiPKfPi+0xd3>
  4128f7:	8b 45 20             	mov    0x20(%rbp),%eax
  4128fa:	89 85 88 dc ff ff    	mov    %eax,-0x2378(%rbp)
  412900:	8b 85 88 dc ff ff    	mov    -0x2378(%rbp),%eax
  412906:	c1 e0 02             	shl    $0x2,%eax
  412909:	48 63 d0             	movslq %eax,%rdx
  41290c:	48 8d 85 70 df ff ff 	lea    -0x2090(%rbp),%rax
  412913:	48 89 d6             	mov    %rdx,%rsi
  412916:	48 89 c7             	mov    %rax,%rdi
  412919:	e8 86 c4 00 00       	callq  41eda4 <_ZN2cv10AutoBufferIfLm1032EEC1Em>
  41291e:	48 8d 85 70 df ff ff 	lea    -0x2090(%rbp),%rax
  412925:	48 89 c7             	mov    %rax,%rdi
  412928:	e8 3d c1 00 00       	callq  41ea6a <_ZN2cv10AutoBufferIfLm1032EEcvPfEv>
  41292d:	48 89 85 d0 dc ff ff 	mov    %rax,-0x2330(%rbp)
  412934:	48 8b 8d d0 dc ff ff 	mov    -0x2330(%rbp),%rcx
  41293b:	8b 95 88 dc ff ff    	mov    -0x2378(%rbp),%edx
  412941:	48 8d 85 f0 dd ff ff 	lea    -0x2210(%rbp),%rax
  412948:	41 b9 00 00 00 00    	mov    $0x0,%r9d
  41294e:	49 89 c8             	mov    %rcx,%r8
  412951:	b9 05 00 00 00       	mov    $0x5,%ecx
  412956:	be 01 00 00 00       	mov    $0x1,%esi
  41295b:	48 89 c7             	mov    %rax,%rdi
  41295e:	e8 77 a1 00 00       	callq  41cada <_ZN2cv3MatC1EiiiPvm>
  412963:	8b 85 88 dc ff ff    	mov    -0x2378(%rbp),%eax
  412969:	48 98                	cltq   
  41296b:	48 8d 14 85 00 00 00 	lea    0x0(,%rax,4),%rdx
  412972:	00 
  412973:	48 8b 85 d0 dc ff ff 	mov    -0x2330(%rbp),%rax
  41297a:	48 8d 0c 02          	lea    (%rdx,%rax,1),%rcx
  41297e:	8b 95 88 dc ff ff    	mov    -0x2378(%rbp),%edx
  412984:	48 8d 85 50 de ff ff 	lea    -0x21b0(%rbp),%rax
  41298b:	41 b9 00 00 00 00    	mov    $0x0,%r9d
  412991:	49 89 c8             	mov    %rcx,%r8
  412994:	b9 05 00 00 00       	mov    $0x5,%ecx
  412999:	be 01 00 00 00       	mov    $0x1,%esi
  41299e:	48 89 c7             	mov    %rax,%rdi
  4129a1:	e8 34 a1 00 00       	callq  41cada <_ZN2cv3MatC1EiiiPvm>
  4129a6:	8b 85 88 dc ff ff    	mov    -0x2378(%rbp),%eax
  4129ac:	48 98                	cltq   
  4129ae:	48 8d 14 c5 00 00 00 	lea    0x0(,%rax,8),%rdx
  4129b5:	00 
  4129b6:	48 8b 85 d0 dc ff ff 	mov    -0x2330(%rbp),%rax
  4129bd:	48 8d 0c 02          	lea    (%rdx,%rax,1),%rcx
  4129c1:	8b 95 88 dc ff ff    	mov    -0x2378(%rbp),%edx
  4129c7:	48 8d 85 b0 de ff ff 	lea    -0x2150(%rbp),%rax
  4129ce:	41 b9 00 00 00 00    	mov    $0x0,%r9d
  4129d4:	49 89 c8             	mov    %rcx,%r8
  4129d7:	b9 05 00 00 00       	mov    $0x5,%ecx
  4129dc:	be 01 00 00 00       	mov    $0x1,%esi
  4129e1:	48 89 c7             	mov    %rax,%rdi
  4129e4:	e8 f1 a0 00 00       	callq  41cada <_ZN2cv3MatC1EiiiPvm>
  4129e9:	8b 85 88 dc ff ff    	mov    -0x2378(%rbp),%eax
  4129ef:	48 63 d0             	movslq %eax,%rdx
  4129f2:	48 89 d0             	mov    %rdx,%rax
  4129f5:	48 01 c0             	add    %rax,%rax
  4129f8:	48 01 d0             	add    %rdx,%rax
  4129fb:	48 c1 e0 02          	shl    $0x2,%rax
  4129ff:	48 89 c2             	mov    %rax,%rdx
  412a02:	48 8b 85 d0 dc ff ff 	mov    -0x2330(%rbp),%rax
  412a09:	48 8d 0c 02          	lea    (%rdx,%rax,1),%rcx
  412a0d:	8b 95 88 dc ff ff    	mov    -0x2378(%rbp),%edx
  412a13:	48 8d 85 10 df ff ff 	lea    -0x20f0(%rbp),%rax
  412a1a:	41 b9 00 00 00 00    	mov    $0x0,%r9d
  412a20:	49 89 c8             	mov    %rcx,%r8
  412a23:	b9 05 00 00 00       	mov    $0x5,%ecx
  412a28:	be 01 00 00 00       	mov    $0x1,%esi
  412a2d:	48 89 c7             	mov    %rax,%rdi
  412a30:	e8 a5 a0 00 00       	callq  41cada <_ZN2cv3MatC1EiiiPvm>
  412a35:	48 8b 85 48 dc ff ff 	mov    -0x23b8(%rbp),%rax
  412a3c:	8b 40 28             	mov    0x28(%rax),%eax
  412a3f:	89 85 8c dc ff ff    	mov    %eax,-0x2374(%rbp)
  412a45:	f2 0f 2a 85 8c dc ff 	cvtsi2sdl -0x2374(%rbp),%xmm0
  412a4c:	ff 
  412a4d:	f2 0f 10 0d 93 d6 01 	movsd  0x1d693(%rip),%xmm1        # 4300e8 <_ZZN2cv9partitionINS_5Rect_IiEE13SimilarRects2EEiRKSt6vectorIT_SaIS5_EERS4_IiSaIiEET0_E19__PRETTY_FUNCTION__+0xe8>
  412a54:	00 
  412a55:	f2 0f 5e c1          	divsd  %xmm1,%xmm0
  412a59:	66 0f 14 c0          	unpcklpd %xmm0,%xmm0
  412a5d:	66 0f 5a d0          	cvtpd2ps %xmm0,%xmm2
  412a61:	f3 0f 11 95 90 dc ff 	movss  %xmm2,-0x2370(%rbp)
  412a68:	ff 
  412a69:	c7 85 68 dc ff ff 00 	movl   $0x0,-0x2398(%rbp)
  412a70:	00 00 00 
  412a73:	e9 52 0f 00 00       	jmpq   4139ca <_ZNK14HOGDescriptor215computeGradientERKN2cv3MatERS1_S4_iiiiiiiiiiiPKfPi+0x1200>
  412a78:	48 8b 85 40 dc ff ff 	mov    -0x23c0(%rbp),%rax
  412a7f:	48 8b 58 10          	mov    0x10(%rax),%rbx
  412a83:	48 8b 85 40 dc ff ff 	mov    -0x23c0(%rbp),%rax
  412a8a:	48 83 c0 48          	add    $0x48,%rax
  412a8e:	48 89 c7             	mov    %rax,%rdi
  412a91:	e8 2e aa 00 00       	callq  41d4c4 <_ZNK2cv3Mat5MStepcvmEv>
  412a96:	8b 95 68 dc ff ff    	mov    -0x2398(%rbp),%edx
  412a9c:	48 63 d2             	movslq %edx,%rdx
  412a9f:	48 8d 0c 95 00 00 00 	lea    0x0(,%rdx,4),%rcx
  412aa6:	00 
  412aa7:	48 8b 95 c8 dc ff ff 	mov    -0x2338(%rbp),%rdx
  412aae:	48 01 ca             	add    %rcx,%rdx
  412ab1:	8b 12                	mov    (%rdx),%edx
  412ab3:	48 63 d2             	movslq %edx,%rdx
  412ab6:	48 0f af c2          	imul   %rdx,%rax
  412aba:	48 01 d8             	add    %rbx,%rax
  412abd:	48 89 85 d8 dc ff ff 	mov    %rax,-0x2328(%rbp)
  412ac4:	48 8b 85 40 dc ff ff 	mov    -0x23c0(%rbp),%rax
  412acb:	48 8b 58 10          	mov    0x10(%rax),%rbx
  412acf:	48 8b 85 40 dc ff ff 	mov    -0x23c0(%rbp),%rax
  412ad6:	48 83 c0 48          	add    $0x48,%rax
  412ada:	48 89 c7             	mov    %rax,%rdi
  412add:	e8 e2 a9 00 00       	callq  41d4c4 <_ZNK2cv3Mat5MStepcvmEv>
  412ae2:	8b 95 68 dc ff ff    	mov    -0x2398(%rbp),%edx
  412ae8:	48 63 d2             	movslq %edx,%rdx
  412aeb:	48 c1 e2 02          	shl    $0x2,%rdx
  412aef:	48 8d 4a fc          	lea    -0x4(%rdx),%rcx
  412af3:	48 8b 95 c8 dc ff ff 	mov    -0x2338(%rbp),%rdx
  412afa:	48 01 ca             	add    %rcx,%rdx
  412afd:	8b 12                	mov    (%rdx),%edx
  412aff:	48 63 d2             	movslq %edx,%rdx
  412b02:	48 0f af c2          	imul   %rdx,%rax
  412b06:	48 01 d8             	add    %rbx,%rax
  412b09:	48 89 85 e0 dc ff ff 	mov    %rax,-0x2320(%rbp)
  412b10:	48 8b 85 40 dc ff ff 	mov    -0x23c0(%rbp),%rax
  412b17:	48 8b 58 10          	mov    0x10(%rax),%rbx
  412b1b:	48 8b 85 40 dc ff ff 	mov    -0x23c0(%rbp),%rax
  412b22:	48 83 c0 48          	add    $0x48,%rax
  412b26:	48 89 c7             	mov    %rax,%rdi
  412b29:	e8 96 a9 00 00       	callq  41d4c4 <_ZNK2cv3Mat5MStepcvmEv>
  412b2e:	8b 95 68 dc ff ff    	mov    -0x2398(%rbp),%edx
  412b34:	48 63 d2             	movslq %edx,%rdx
  412b37:	48 83 c2 01          	add    $0x1,%rdx
  412b3b:	48 8d 0c 95 00 00 00 	lea    0x0(,%rdx,4),%rcx
  412b42:	00 
  412b43:	48 8b 95 c8 dc ff ff 	mov    -0x2338(%rbp),%rdx
  412b4a:	48 01 ca             	add    %rcx,%rdx
  412b4d:	8b 12                	mov    (%rdx),%edx
  412b4f:	48 63 d2             	movslq %edx,%rdx
  412b52:	48 0f af c2          	imul   %rdx,%rax
  412b56:	48 01 d8             	add    %rbx,%rax
  412b59:	48 89 85 e8 dc ff ff 	mov    %rax,-0x2318(%rbp)
  412b60:	8b 95 68 dc ff ff    	mov    -0x2398(%rbp),%edx
  412b66:	48 8b 85 38 dc ff ff 	mov    -0x23c8(%rbp),%rax
  412b6d:	89 d6                	mov    %edx,%esi
  412b6f:	48 89 c7             	mov    %rax,%rdi
  412b72:	e8 29 a7 00 00       	callq  41d2a0 <_ZN2cv3Mat3ptrEi>
  412b77:	48 89 85 f0 dc ff ff 	mov    %rax,-0x2310(%rbp)
  412b7e:	8b 95 68 dc ff ff    	mov    -0x2398(%rbp),%edx
  412b84:	48 8b 85 30 dc ff ff 	mov    -0x23d0(%rbp),%rax
  412b8b:	89 d6                	mov    %edx,%esi
  412b8d:	48 89 c7             	mov    %rax,%rdi
  412b90:	e8 0b a7 00 00       	callq  41d2a0 <_ZN2cv3Mat3ptrEi>
  412b95:	48 89 85 f8 dc ff ff 	mov    %rax,-0x2308(%rbp)
  412b9c:	83 7d 30 01          	cmpl   $0x1,0x30(%rbp)
  412ba0:	0f 85 74 01 00 00    	jne    412d1a <_ZNK14HOGDescriptor215computeGradientERKN2cv3MatERS1_S4_iiiiiiiiiiiPKfPi+0x550>
  412ba6:	c7 85 64 dc ff ff 00 	movl   $0x0,-0x239c(%rbp)
  412bad:	00 00 00 
  412bb0:	e9 4e 01 00 00       	jmpq   412d03 <_ZNK14HOGDescriptor215computeGradientERKN2cv3MatERS1_S4_iiiiiiiiiiiPKfPi+0x539>
  412bb5:	8b 85 64 dc ff ff    	mov    -0x239c(%rbp),%eax
  412bbb:	48 98                	cltq   
  412bbd:	48 8d 14 85 00 00 00 	lea    0x0(,%rax,4),%rdx
  412bc4:	00 
  412bc5:	48 8b 45 60          	mov    0x60(%rbp),%rax
  412bc9:	48 01 d0             	add    %rdx,%rax
  412bcc:	8b 00                	mov    (%rax),%eax
  412bce:	89 85 94 dc ff ff    	mov    %eax,-0x236c(%rbp)
  412bd4:	8b 85 64 dc ff ff    	mov    -0x239c(%rbp),%eax
  412bda:	48 98                	cltq   
  412bdc:	48 8d 14 85 00 00 00 	lea    0x0(,%rax,4),%rdx
  412be3:	00 
  412be4:	48 8b 85 d0 dc ff ff 	mov    -0x2330(%rbp),%rax
  412beb:	48 01 d0             	add    %rdx,%rax
  412bee:	8b 95 64 dc ff ff    	mov    -0x239c(%rbp),%edx
  412bf4:	48 63 d2             	movslq %edx,%rdx
  412bf7:	48 83 c2 01          	add    $0x1,%rdx
  412bfb:	48 8d 0c 95 00 00 00 	lea    0x0(,%rdx,4),%rcx
  412c02:	00 
  412c03:	48 8b 55 60          	mov    0x60(%rbp),%rdx
  412c07:	48 01 ca             	add    %rcx,%rdx
  412c0a:	8b 12                	mov    (%rdx),%edx
  412c0c:	48 63 ca             	movslq %edx,%rcx
  412c0f:	48 8b 95 d8 dc ff ff 	mov    -0x2328(%rbp),%rdx
  412c16:	48 01 ca             	add    %rcx,%rdx
  412c19:	0f b6 12             	movzbl (%rdx),%edx
  412c1c:	0f b6 d2             	movzbl %dl,%edx
  412c1f:	48 8d 0c 95 00 00 00 	lea    0x0(,%rdx,4),%rcx
  412c26:	00 
  412c27:	48 8b 55 58          	mov    0x58(%rbp),%rdx
  412c2b:	48 01 ca             	add    %rcx,%rdx
  412c2e:	f3 0f 10 02          	movss  (%rdx),%xmm0
  412c32:	8b 95 64 dc ff ff    	mov    -0x239c(%rbp),%edx
  412c38:	48 63 d2             	movslq %edx,%rdx
  412c3b:	48 c1 e2 02          	shl    $0x2,%rdx
  412c3f:	48 8d 4a fc          	lea    -0x4(%rdx),%rcx
  412c43:	48 8b 55 60          	mov    0x60(%rbp),%rdx
  412c47:	48 01 ca             	add    %rcx,%rdx
  412c4a:	8b 12                	mov    (%rdx),%edx
  412c4c:	48 63 ca             	movslq %edx,%rcx
  412c4f:	48 8b 95 d8 dc ff ff 	mov    -0x2328(%rbp),%rdx
  412c56:	48 01 ca             	add    %rcx,%rdx
  412c59:	0f b6 12             	movzbl (%rdx),%edx
  412c5c:	0f b6 d2             	movzbl %dl,%edx
  412c5f:	48 8d 0c 95 00 00 00 	lea    0x0(,%rdx,4),%rcx
  412c66:	00 
  412c67:	48 8b 55 58          	mov    0x58(%rbp),%rdx
  412c6b:	48 01 ca             	add    %rcx,%rdx
  412c6e:	f3 0f 10 0a          	movss  (%rdx),%xmm1
  412c72:	f3 0f 5c c1          	subss  %xmm1,%xmm0
  412c76:	f3 0f 11 00          	movss  %xmm0,(%rax)
  412c7a:	8b 85 64 dc ff ff    	mov    -0x239c(%rbp),%eax
  412c80:	8b 95 88 dc ff ff    	mov    -0x2378(%rbp),%edx
  412c86:	01 d0                	add    %edx,%eax
  412c88:	48 98                	cltq   
  412c8a:	48 8d 14 85 00 00 00 	lea    0x0(,%rax,4),%rdx
  412c91:	00 
  412c92:	48 8b 85 d0 dc ff ff 	mov    -0x2330(%rbp),%rax
  412c99:	48 01 d0             	add    %rdx,%rax
  412c9c:	8b 95 94 dc ff ff    	mov    -0x236c(%rbp),%edx
  412ca2:	48 63 ca             	movslq %edx,%rcx
  412ca5:	48 8b 95 e8 dc ff ff 	mov    -0x2318(%rbp),%rdx
  412cac:	48 01 ca             	add    %rcx,%rdx
  412caf:	0f b6 12             	movzbl (%rdx),%edx
  412cb2:	0f b6 d2             	movzbl %dl,%edx
  412cb5:	48 8d 0c 95 00 00 00 	lea    0x0(,%rdx,4),%rcx
  412cbc:	00 
  412cbd:	48 8b 55 58          	mov    0x58(%rbp),%rdx
  412cc1:	48 01 ca             	add    %rcx,%rdx
  412cc4:	f3 0f 10 02          	movss  (%rdx),%xmm0
  412cc8:	8b 95 94 dc ff ff    	mov    -0x236c(%rbp),%edx
  412cce:	48 63 ca             	movslq %edx,%rcx
  412cd1:	48 8b 95 e0 dc ff ff 	mov    -0x2320(%rbp),%rdx
  412cd8:	48 01 ca             	add    %rcx,%rdx
  412cdb:	0f b6 12             	movzbl (%rdx),%edx
  412cde:	0f b6 d2             	movzbl %dl,%edx
  412ce1:	48 8d 0c 95 00 00 00 	lea    0x0(,%rdx,4),%rcx
  412ce8:	00 
  412ce9:	48 8b 55 58          	mov    0x58(%rbp),%rdx
  412ced:	48 01 ca             	add    %rcx,%rdx
  412cf0:	f3 0f 10 0a          	movss  (%rdx),%xmm1
  412cf4:	f3 0f 5c c1          	subss  %xmm1,%xmm0
  412cf8:	f3 0f 11 00          	movss  %xmm0,(%rax)
  412cfc:	83 85 64 dc ff ff 01 	addl   $0x1,-0x239c(%rbp)
  412d03:	8b 85 64 dc ff ff    	mov    -0x239c(%rbp),%eax
  412d09:	3b 85 88 dc ff ff    	cmp    -0x2378(%rbp),%eax
  412d0f:	0f 8c a0 fe ff ff    	jl     412bb5 <_ZNK14HOGDescriptor215computeGradientERKN2cv3MatERS1_S4_iiiiiiiiiiiPKfPi+0x3eb>
  412d15:	e9 26 04 00 00       	jmpq   413140 <_ZNK14HOGDescriptor215computeGradientERKN2cv3MatERS1_S4_iiiiiiiiiiiPKfPi+0x976>
  412d1a:	c7 85 64 dc ff ff 00 	movl   $0x0,-0x239c(%rbp)
  412d21:	00 00 00 
  412d24:	e9 05 04 00 00       	jmpq   41312e <_ZNK14HOGDescriptor215computeGradientERKN2cv3MatERS1_S4_iiiiiiiiiiiPKfPi+0x964>
  412d29:	8b 85 64 dc ff ff    	mov    -0x239c(%rbp),%eax
  412d2f:	48 98                	cltq   
  412d31:	48 8d 14 85 00 00 00 	lea    0x0(,%rax,4),%rdx
  412d38:	00 
  412d39:	48 8b 45 60          	mov    0x60(%rbp),%rax
  412d3d:	48 01 d0             	add    %rdx,%rax
  412d40:	8b 10                	mov    (%rax),%edx
  412d42:	89 d0                	mov    %edx,%eax
  412d44:	01 c0                	add    %eax,%eax
  412d46:	01 d0                	add    %edx,%eax
  412d48:	89 85 98 dc ff ff    	mov    %eax,-0x2368(%rbp)
  412d4e:	8b 85 64 dc ff ff    	mov    -0x239c(%rbp),%eax
  412d54:	48 98                	cltq   
  412d56:	48 83 c0 01          	add    $0x1,%rax
  412d5a:	48 8d 14 85 00 00 00 	lea    0x0(,%rax,4),%rdx
  412d61:	00 
  412d62:	48 8b 45 60          	mov    0x60(%rbp),%rax
  412d66:	48 01 d0             	add    %rdx,%rax
  412d69:	8b 10                	mov    (%rax),%edx
  412d6b:	89 d0                	mov    %edx,%eax
  412d6d:	01 c0                	add    %eax,%eax
  412d6f:	01 d0                	add    %edx,%eax
  412d71:	48 63 d0             	movslq %eax,%rdx
  412d74:	48 8b 85 d8 dc ff ff 	mov    -0x2328(%rbp),%rax
  412d7b:	48 01 d0             	add    %rdx,%rax
  412d7e:	48 89 85 00 dd ff ff 	mov    %rax,-0x2300(%rbp)
  412d85:	8b 85 64 dc ff ff    	mov    -0x239c(%rbp),%eax
  412d8b:	48 98                	cltq   
  412d8d:	48 c1 e0 02          	shl    $0x2,%rax
  412d91:	48 8d 50 fc          	lea    -0x4(%rax),%rdx
  412d95:	48 8b 45 60          	mov    0x60(%rbp),%rax
  412d99:	48 01 d0             	add    %rdx,%rax
  412d9c:	8b 10                	mov    (%rax),%edx
  412d9e:	89 d0                	mov    %edx,%eax
  412da0:	01 c0                	add    %eax,%eax
  412da2:	01 d0                	add    %edx,%eax
  412da4:	48 63 d0             	movslq %eax,%rdx
  412da7:	48 8b 85 d8 dc ff ff 	mov    -0x2328(%rbp),%rax
  412dae:	48 01 d0             	add    %rdx,%rax
  412db1:	48 89 85 08 dd ff ff 	mov    %rax,-0x22f8(%rbp)
  412db8:	48 8b 85 00 dd ff ff 	mov    -0x2300(%rbp),%rax
  412dbf:	48 83 c0 02          	add    $0x2,%rax
  412dc3:	0f b6 00             	movzbl (%rax),%eax
  412dc6:	0f b6 c0             	movzbl %al,%eax
  412dc9:	48 8d 14 85 00 00 00 	lea    0x0(,%rax,4),%rdx
  412dd0:	00 
  412dd1:	48 8b 45 58          	mov    0x58(%rbp),%rax
  412dd5:	48 01 d0             	add    %rdx,%rax
  412dd8:	f3 0f 10 00          	movss  (%rax),%xmm0
  412ddc:	48 8b 85 08 dd ff ff 	mov    -0x22f8(%rbp),%rax
  412de3:	48 83 c0 02          	add    $0x2,%rax
  412de7:	0f b6 00             	movzbl (%rax),%eax
  412dea:	0f b6 c0             	movzbl %al,%eax
  412ded:	48 8d 14 85 00 00 00 	lea    0x0(,%rax,4),%rdx
  412df4:	00 
  412df5:	48 8b 45 58          	mov    0x58(%rbp),%rax
  412df9:	48 01 d0             	add    %rdx,%rax
  412dfc:	f3 0f 10 08          	movss  (%rax),%xmm1
  412e00:	f3 0f 5c c1          	subss  %xmm1,%xmm0
  412e04:	f3 0f 11 85 6c dc ff 	movss  %xmm0,-0x2394(%rbp)
  412e0b:	ff 
  412e0c:	8b 85 98 dc ff ff    	mov    -0x2368(%rbp),%eax
  412e12:	48 98                	cltq   
  412e14:	48 8d 50 02          	lea    0x2(%rax),%rdx
  412e18:	48 8b 85 e8 dc ff ff 	mov    -0x2318(%rbp),%rax
  412e1f:	48 01 d0             	add    %rdx,%rax
  412e22:	0f b6 00             	movzbl (%rax),%eax
  412e25:	0f b6 c0             	movzbl %al,%eax
  412e28:	48 8d 14 85 00 00 00 	lea    0x0(,%rax,4),%rdx
  412e2f:	00 
  412e30:	48 8b 45 58          	mov    0x58(%rbp),%rax
  412e34:	48 01 d0             	add    %rdx,%rax
  412e37:	f3 0f 10 00          	movss  (%rax),%xmm0
  412e3b:	8b 85 98 dc ff ff    	mov    -0x2368(%rbp),%eax
  412e41:	48 98                	cltq   
  412e43:	48 8d 50 02          	lea    0x2(%rax),%rdx
  412e47:	48 8b 85 e0 dc ff ff 	mov    -0x2320(%rbp),%rax
  412e4e:	48 01 d0             	add    %rdx,%rax
  412e51:	0f b6 00             	movzbl (%rax),%eax
  412e54:	0f b6 c0             	movzbl %al,%eax
  412e57:	48 8d 14 85 00 00 00 	lea    0x0(,%rax,4),%rdx
  412e5e:	00 
  412e5f:	48 8b 45 58          	mov    0x58(%rbp),%rax
  412e63:	48 01 d0             	add    %rdx,%rax
  412e66:	f3 0f 10 08          	movss  (%rax),%xmm1
  412e6a:	f3 0f 5c c1          	subss  %xmm1,%xmm0
  412e6e:	f3 0f 11 85 70 dc ff 	movss  %xmm0,-0x2390(%rbp)
  412e75:	ff 
  412e76:	f3 0f 10 85 6c dc ff 	movss  -0x2394(%rbp),%xmm0
  412e7d:	ff 
  412e7e:	0f 28 c8             	movaps %xmm0,%xmm1
  412e81:	f3 0f 59 8d 6c dc ff 	mulss  -0x2394(%rbp),%xmm1
  412e88:	ff 
  412e89:	f3 0f 10 85 70 dc ff 	movss  -0x2390(%rbp),%xmm0
  412e90:	ff 
  412e91:	f3 0f 59 85 70 dc ff 	mulss  -0x2390(%rbp),%xmm0
  412e98:	ff 
  412e99:	f3 0f 58 c1          	addss  %xmm1,%xmm0
  412e9d:	f3 0f 11 85 74 dc ff 	movss  %xmm0,-0x238c(%rbp)
  412ea4:	ff 
  412ea5:	48 8b 85 00 dd ff ff 	mov    -0x2300(%rbp),%rax
  412eac:	48 83 c0 01          	add    $0x1,%rax
  412eb0:	0f b6 00             	movzbl (%rax),%eax
  412eb3:	0f b6 c0             	movzbl %al,%eax
  412eb6:	48 8d 14 85 00 00 00 	lea    0x0(,%rax,4),%rdx
  412ebd:	00 
  412ebe:	48 8b 45 58          	mov    0x58(%rbp),%rax
  412ec2:	48 01 d0             	add    %rdx,%rax
  412ec5:	f3 0f 10 00          	movss  (%rax),%xmm0
  412ec9:	48 8b 85 08 dd ff ff 	mov    -0x22f8(%rbp),%rax
  412ed0:	48 83 c0 01          	add    $0x1,%rax
  412ed4:	0f b6 00             	movzbl (%rax),%eax
  412ed7:	0f b6 c0             	movzbl %al,%eax
  412eda:	48 8d 14 85 00 00 00 	lea    0x0(,%rax,4),%rdx
  412ee1:	00 
  412ee2:	48 8b 45 58          	mov    0x58(%rbp),%rax
  412ee6:	48 01 d0             	add    %rdx,%rax
  412ee9:	f3 0f 10 08          	movss  (%rax),%xmm1
  412eed:	f3 0f 5c c1          	subss  %xmm1,%xmm0
  412ef1:	f3 0f 11 85 9c dc ff 	movss  %xmm0,-0x2364(%rbp)
  412ef8:	ff 
  412ef9:	8b 85 98 dc ff ff    	mov    -0x2368(%rbp),%eax
  412eff:	48 98                	cltq   
  412f01:	48 8d 50 01          	lea    0x1(%rax),%rdx
  412f05:	48 8b 85 e8 dc ff ff 	mov    -0x2318(%rbp),%rax
  412f0c:	48 01 d0             	add    %rdx,%rax
  412f0f:	0f b6 00             	movzbl (%rax),%eax
  412f12:	0f b6 c0             	movzbl %al,%eax
  412f15:	48 8d 14 85 00 00 00 	lea    0x0(,%rax,4),%rdx
  412f1c:	00 
  412f1d:	48 8b 45 58          	mov    0x58(%rbp),%rax
  412f21:	48 01 d0             	add    %rdx,%rax
  412f24:	f3 0f 10 00          	movss  (%rax),%xmm0
  412f28:	8b 85 98 dc ff ff    	mov    -0x2368(%rbp),%eax
  412f2e:	48 98                	cltq   
  412f30:	48 8d 50 01          	lea    0x1(%rax),%rdx
  412f34:	48 8b 85 e0 dc ff ff 	mov    -0x2320(%rbp),%rax
  412f3b:	48 01 d0             	add    %rdx,%rax
  412f3e:	0f b6 00             	movzbl (%rax),%eax
  412f41:	0f b6 c0             	movzbl %al,%eax
  412f44:	48 8d 14 85 00 00 00 	lea    0x0(,%rax,4),%rdx
  412f4b:	00 
  412f4c:	48 8b 45 58          	mov    0x58(%rbp),%rax
  412f50:	48 01 d0             	add    %rdx,%rax
  412f53:	f3 0f 10 08          	movss  (%rax),%xmm1
  412f57:	f3 0f 5c c1          	subss  %xmm1,%xmm0
  412f5b:	f3 0f 11 85 a0 dc ff 	movss  %xmm0,-0x2360(%rbp)
  412f62:	ff 
  412f63:	f3 0f 10 85 9c dc ff 	movss  -0x2364(%rbp),%xmm0
  412f6a:	ff 
  412f6b:	0f 28 c8             	movaps %xmm0,%xmm1
  412f6e:	f3 0f 59 8d 9c dc ff 	mulss  -0x2364(%rbp),%xmm1
  412f75:	ff 
  412f76:	f3 0f 10 85 a0 dc ff 	movss  -0x2360(%rbp),%xmm0
  412f7d:	ff 
  412f7e:	f3 0f 59 85 a0 dc ff 	mulss  -0x2360(%rbp),%xmm0
  412f85:	ff 
  412f86:	f3 0f 58 c1          	addss  %xmm1,%xmm0
  412f8a:	f3 0f 11 85 a4 dc ff 	movss  %xmm0,-0x235c(%rbp)
  412f91:	ff 
  412f92:	f3 0f 10 85 a4 dc ff 	movss  -0x235c(%rbp),%xmm0
  412f99:	ff 
  412f9a:	0f 2e 85 74 dc ff ff 	ucomiss -0x238c(%rbp),%xmm0
  412fa1:	76 24                	jbe    412fc7 <_ZNK14HOGDescriptor215computeGradientERKN2cv3MatERS1_S4_iiiiiiiiiiiPKfPi+0x7fd>
  412fa3:	8b 85 9c dc ff ff    	mov    -0x2364(%rbp),%eax
  412fa9:	89 85 6c dc ff ff    	mov    %eax,-0x2394(%rbp)
  412faf:	8b 85 a0 dc ff ff    	mov    -0x2360(%rbp),%eax
  412fb5:	89 85 70 dc ff ff    	mov    %eax,-0x2390(%rbp)
  412fbb:	8b 85 a4 dc ff ff    	mov    -0x235c(%rbp),%eax
  412fc1:	89 85 74 dc ff ff    	mov    %eax,-0x238c(%rbp)
  412fc7:	48 8b 85 00 dd ff ff 	mov    -0x2300(%rbp),%rax
  412fce:	0f b6 00             	movzbl (%rax),%eax
  412fd1:	0f b6 c0             	movzbl %al,%eax
  412fd4:	48 8d 14 85 00 00 00 	lea    0x0(,%rax,4),%rdx
  412fdb:	00 
  412fdc:	48 8b 45 58          	mov    0x58(%rbp),%rax
  412fe0:	48 01 d0             	add    %rdx,%rax
  412fe3:	f3 0f 10 00          	movss  (%rax),%xmm0
  412fe7:	48 8b 85 08 dd ff ff 	mov    -0x22f8(%rbp),%rax
  412fee:	0f b6 00             	movzbl (%rax),%eax
  412ff1:	0f b6 c0             	movzbl %al,%eax
  412ff4:	48 8d 14 85 00 00 00 	lea    0x0(,%rax,4),%rdx
  412ffb:	00 
  412ffc:	48 8b 45 58          	mov    0x58(%rbp),%rax
  413000:	48 01 d0             	add    %rdx,%rax
  413003:	f3 0f 10 08          	movss  (%rax),%xmm1
  413007:	f3 0f 5c c1          	subss  %xmm1,%xmm0
  41300b:	f3 0f 11 85 9c dc ff 	movss  %xmm0,-0x2364(%rbp)
  413012:	ff 
  413013:	8b 85 98 dc ff ff    	mov    -0x2368(%rbp),%eax
  413019:	48 63 d0             	movslq %eax,%rdx
  41301c:	48 8b 85 e8 dc ff ff 	mov    -0x2318(%rbp),%rax
  413023:	48 01 d0             	add    %rdx,%rax
  413026:	0f b6 00             	movzbl (%rax),%eax
  413029:	0f b6 c0             	movzbl %al,%eax
  41302c:	48 8d 14 85 00 00 00 	lea    0x0(,%rax,4),%rdx
  413033:	00 
  413034:	48 8b 45 58          	mov    0x58(%rbp),%rax
  413038:	48 01 d0             	add    %rdx,%rax
  41303b:	f3 0f 10 00          	movss  (%rax),%xmm0
  41303f:	8b 85 98 dc ff ff    	mov    -0x2368(%rbp),%eax
  413045:	48 63 d0             	movslq %eax,%rdx
  413048:	48 8b 85 e0 dc ff ff 	mov    -0x2320(%rbp),%rax
  41304f:	48 01 d0             	add    %rdx,%rax
  413052:	0f b6 00             	movzbl (%rax),%eax
  413055:	0f b6 c0             	movzbl %al,%eax
  413058:	48 8d 14 85 00 00 00 	lea    0x0(,%rax,4),%rdx
  41305f:	00 
  413060:	48 8b 45 58          	mov    0x58(%rbp),%rax
  413064:	48 01 d0             	add    %rdx,%rax
  413067:	f3 0f 10 08          	movss  (%rax),%xmm1
  41306b:	f3 0f 5c c1          	subss  %xmm1,%xmm0
  41306f:	f3 0f 11 85 a0 dc ff 	movss  %xmm0,-0x2360(%rbp)
  413076:	ff 
  413077:	f3 0f 10 85 9c dc ff 	movss  -0x2364(%rbp),%xmm0
  41307e:	ff 
  41307f:	0f 28 c8             	movaps %xmm0,%xmm1
  413082:	f3 0f 59 8d 9c dc ff 	mulss  -0x2364(%rbp),%xmm1
  413089:	ff 
  41308a:	f3 0f 10 85 a0 dc ff 	movss  -0x2360(%rbp),%xmm0
  413091:	ff 
  413092:	f3 0f 59 85 a0 dc ff 	mulss  -0x2360(%rbp),%xmm0
  413099:	ff 
  41309a:	f3 0f 58 c1          	addss  %xmm1,%xmm0
  41309e:	f3 0f 11 85 a4 dc ff 	movss  %xmm0,-0x235c(%rbp)
  4130a5:	ff 
  4130a6:	f3 0f 10 85 a4 dc ff 	movss  -0x235c(%rbp),%xmm0
  4130ad:	ff 
  4130ae:	0f 2e 85 74 dc ff ff 	ucomiss -0x238c(%rbp),%xmm0
  4130b5:	76 24                	jbe    4130db <_ZNK14HOGDescriptor215computeGradientERKN2cv3MatERS1_S4_iiiiiiiiiiiPKfPi+0x911>
  4130b7:	8b 85 9c dc ff ff    	mov    -0x2364(%rbp),%eax
  4130bd:	89 85 6c dc ff ff    	mov    %eax,-0x2394(%rbp)
  4130c3:	8b 85 a0 dc ff ff    	mov    -0x2360(%rbp),%eax
  4130c9:	89 85 70 dc ff ff    	mov    %eax,-0x2390(%rbp)
  4130cf:	8b 85 a4 dc ff ff    	mov    -0x235c(%rbp),%eax
  4130d5:	89 85 74 dc ff ff    	mov    %eax,-0x238c(%rbp)
  4130db:	8b 85 64 dc ff ff    	mov    -0x239c(%rbp),%eax
  4130e1:	48 98                	cltq   
  4130e3:	48 8d 14 85 00 00 00 	lea    0x0(,%rax,4),%rdx
  4130ea:	00 
  4130eb:	48 8b 85 d0 dc ff ff 	mov    -0x2330(%rbp),%rax
  4130f2:	48 01 c2             	add    %rax,%rdx
  4130f5:	8b 85 6c dc ff ff    	mov    -0x2394(%rbp),%eax
  4130fb:	89 02                	mov    %eax,(%rdx)
  4130fd:	8b 85 88 dc ff ff    	mov    -0x2378(%rbp),%eax
  413103:	8b 95 64 dc ff ff    	mov    -0x239c(%rbp),%edx
  413109:	01 d0                	add    %edx,%eax
  41310b:	48 98                	cltq   
  41310d:	48 8d 14 85 00 00 00 	lea    0x0(,%rax,4),%rdx
  413114:	00 
  413115:	48 8b 85 d0 dc ff ff 	mov    -0x2330(%rbp),%rax
  41311c:	48 01 c2             	add    %rax,%rdx
  41311f:	8b 85 70 dc ff ff    	mov    -0x2390(%rbp),%eax
  413125:	89 02                	mov    %eax,(%rdx)
  413127:	83 85 64 dc ff ff 01 	addl   $0x1,-0x239c(%rbp)
  41312e:	8b 85 64 dc ff ff    	mov    -0x239c(%rbp),%eax
  413134:	3b 85 88 dc ff ff    	cmp    -0x2378(%rbp),%eax
  41313a:	0f 8c e9 fb ff ff    	jl     412d29 <_ZNK14HOGDescriptor215computeGradientERKN2cv3MatERS1_S4_iiiiiiiiiiiPKfPi+0x55f>
  413140:	48 8d 85 f0 dd ff ff 	lea    -0x2210(%rbp),%rax
  413147:	48 89 c7             	mov    %rax,%rdi
  41314a:	e8 f3 a0 00 00       	callq  41d242 <_ZNK2cv3Mat4typeEv>
  41314f:	89 85 a8 dc ff ff    	mov    %eax,-0x2358(%rbp)
  413155:	48 8d 85 f0 dd ff ff 	lea    -0x2210(%rbp),%rax
  41315c:	48 89 c7             	mov    %rax,%rdi
  41315f:	e8 fc a0 00 00       	callq  41d260 <_ZNK2cv3Mat5depthEv>
  413164:	89 85 ac dc ff ff    	mov    %eax,-0x2354(%rbp)
  41316a:	48 8d 85 f0 dd ff ff 	lea    -0x2210(%rbp),%rax
  413171:	48 89 c7             	mov    %rax,%rdi
  413174:	e8 03 a1 00 00       	callq  41d27c <_ZNK2cv3Mat8channelsEv>
  413179:	89 85 b0 dc ff ff    	mov    %eax,-0x2350(%rbp)
  41317f:	48 8d 85 50 de ff ff 	lea    -0x21b0(%rbp),%rax
  413186:	48 8d 50 40          	lea    0x40(%rax),%rdx
  41318a:	48 8d 85 f0 dd ff ff 	lea    -0x2210(%rbp),%rax
  413191:	48 83 c0 40          	add    $0x40,%rax
  413195:	48 89 d6             	mov    %rdx,%rsi
  413198:	48 89 c7             	mov    %rax,%rdi
  41319b:	e8 b2 a1 00 00       	callq  41d352 <_ZNK2cv3Mat5MSizeeqERKS1_>
  4131a0:	84 c0                	test   %al,%al
  4131a2:	74 30                	je     4131d4 <_ZNK14HOGDescriptor215computeGradientERKN2cv3MatERS1_S4_iiiiiiiiiiiPKfPi+0xa0a>
  4131a4:	48 8d 85 50 de ff ff 	lea    -0x21b0(%rbp),%rax
  4131ab:	48 89 c7             	mov    %rax,%rdi
  4131ae:	e8 8f a0 00 00       	callq  41d242 <_ZNK2cv3Mat4typeEv>
  4131b3:	3b 85 a8 dc ff ff    	cmp    -0x2358(%rbp),%eax
  4131b9:	75 19                	jne    4131d4 <_ZNK14HOGDescriptor215computeGradientERKN2cv3MatERS1_S4_iiiiiiiiiiiPKfPi+0xa0a>
  4131bb:	83 bd ac dc ff ff 05 	cmpl   $0x5,-0x2354(%rbp)
  4131c2:	74 09                	je     4131cd <_ZNK14HOGDescriptor215computeGradientERKN2cv3MatERS1_S4_iiiiiiiiiiiPKfPi+0xa03>
  4131c4:	83 bd ac dc ff ff 06 	cmpl   $0x6,-0x2354(%rbp)
  4131cb:	75 07                	jne    4131d4 <_ZNK14HOGDescriptor215computeGradientERKN2cv3MatERS1_S4_iiiiiiiiiiiPKfPi+0xa0a>
  4131cd:	b8 01 00 00 00       	mov    $0x1,%eax
  4131d2:	eb 05                	jmp    4131d9 <_ZNK14HOGDescriptor215computeGradientERKN2cv3MatERS1_S4_iiiiiiiiiiiPKfPi+0xa0f>
  4131d4:	b8 00 00 00 00       	mov    $0x0,%eax
  4131d9:	84 c0                	test   %al,%al
  4131db:	0f 85 28 01 00 00    	jne    413309 <_ZNK14HOGDescriptor215computeGradientERKN2cv3MatERS1_S4_iiiiiiiiiiiPKfPi+0xb3f>
  4131e1:	48 8d 85 50 dd ff ff 	lea    -0x22b0(%rbp),%rax
  4131e8:	48 89 c7             	mov    %rax,%rdi
  4131eb:	e8 70 cf ff ff       	callq  410160 <_ZNSaIcEC1Ev@plt>
  4131f0:	48 8d 95 50 dd ff ff 	lea    -0x22b0(%rbp),%rdx
  4131f7:	48 8d 85 b0 dd ff ff 	lea    -0x2250(%rbp),%rax
  4131fe:	be 19 9d 42 00       	mov    $0x429d19,%esi
  413203:	48 89 c7             	mov    %rax,%rdi
  413206:	e8 85 d0 ff ff       	callq  410290 <_ZNSsC1EPKcRKSaIcE@plt>
  41320b:	48 8d 85 60 dc ff ff 	lea    -0x23a0(%rbp),%rax
  413212:	48 89 c7             	mov    %rax,%rdi
  413215:	e8 46 cf ff ff       	callq  410160 <_ZNSaIcEC1Ev@plt>
  41321a:	48 8d 95 60 dc ff ff 	lea    -0x23a0(%rbp),%rdx
  413221:	48 8d 85 80 dd ff ff 	lea    -0x2280(%rbp),%rax
  413228:	be a0 a3 42 00       	mov    $0x42a3a0,%esi
  41322d:	48 89 c7             	mov    %rax,%rdi
  413230:	e8 5b d0 ff ff       	callq  410290 <_ZNSsC1EPKcRKSaIcE@plt>
  413235:	48 8d 85 5c dc ff ff 	lea    -0x23a4(%rbp),%rax
  41323c:	48 89 c7             	mov    %rax,%rdi
  41323f:	e8 1c cf ff ff       	callq  410160 <_ZNSaIcEC1Ev@plt>
  413244:	48 8d 95 5c dc ff ff 	lea    -0x23a4(%rbp),%rdx
  41324b:	48 8d 85 60 dd ff ff 	lea    -0x22a0(%rbp),%rax
  413252:	be 30 9f 42 00       	mov    $0x429f30,%esi
  413257:	48 89 c7             	mov    %rax,%rdi
  41325a:	e8 31 d0 ff ff       	callq  410290 <_ZNSsC1EPKcRKSaIcE@plt>
  41325f:	48 8d b5 b0 dd ff ff 	lea    -0x2250(%rbp),%rsi
  413266:	48 8d 8d 80 dd ff ff 	lea    -0x2280(%rbp),%rcx
  41326d:	48 8d 95 60 dd ff ff 	lea    -0x22a0(%rbp),%rdx
  413274:	48 8d 85 b0 ef ff ff 	lea    -0x1050(%rbp),%rax
  41327b:	41 b9 29 02 00 00    	mov    $0x229,%r9d
  413281:	49 89 f0             	mov    %rsi,%r8
  413284:	be 29 ff ff ff       	mov    $0xffffff29,%esi
  413289:	48 89 c7             	mov    %rax,%rdi
  41328c:	e8 5f cc ff ff       	callq  40fef0 <_ZN2cv9ExceptionC1EiRKSsS2_S2_i@plt>
  413291:	48 8d 85 b0 ef ff ff 	lea    -0x1050(%rbp),%rax
  413298:	48 89 c7             	mov    %rax,%rdi
  41329b:	e8 c0 cc ff ff       	callq  40ff60 <_ZN2cv5errorERKNS_9ExceptionE@plt>
  4132a0:	48 8d 85 b0 ef ff ff 	lea    -0x1050(%rbp),%rax
  4132a7:	48 89 c7             	mov    %rax,%rdi
  4132aa:	e8 81 cd ff ff       	callq  410030 <_ZN2cv9ExceptionD1Ev@plt>
  4132af:	48 8d 85 60 dd ff ff 	lea    -0x22a0(%rbp),%rax
  4132b6:	48 89 c7             	mov    %rax,%rdi
  4132b9:	e8 c2 cf ff ff       	callq  410280 <_ZNSsD1Ev@plt>
  4132be:	48 8d 85 5c dc ff ff 	lea    -0x23a4(%rbp),%rax
  4132c5:	48 89 c7             	mov    %rax,%rdi
  4132c8:	e8 e3 cf ff ff       	callq  4102b0 <_ZNSaIcED1Ev@plt>
  4132cd:	48 8d 85 80 dd ff ff 	lea    -0x2280(%rbp),%rax
  4132d4:	48 89 c7             	mov    %rax,%rdi
  4132d7:	e8 a4 cf ff ff       	callq  410280 <_ZNSsD1Ev@plt>
  4132dc:	48 8d 85 60 dc ff ff 	lea    -0x23a0(%rbp),%rax
  4132e3:	48 89 c7             	mov    %rax,%rdi
  4132e6:	e8 c5 cf ff ff       	callq  4102b0 <_ZNSaIcED1Ev@plt>
  4132eb:	48 8d 85 b0 dd ff ff 	lea    -0x2250(%rbp),%rax
  4132f2:	48 89 c7             	mov    %rax,%rdi
  4132f5:	e8 86 cf ff ff       	callq  410280 <_ZNSsD1Ev@plt>
  4132fa:	48 8d 85 50 dd ff ff 	lea    -0x22b0(%rbp),%rax
  413301:	48 89 c7             	mov    %rax,%rdi
  413304:	e8 a7 cf ff ff       	callq  4102b0 <_ZNSaIcED1Ev@plt>
  413309:	48 c7 85 80 dd ff ff 	movq   $0x0,-0x2280(%rbp)
  413310:	00 00 00 00 
  413314:	48 c7 85 88 dd ff ff 	movq   $0x0,-0x2278(%rbp)
  41331b:	00 00 00 00 
  41331f:	48 c7 85 90 dd ff ff 	movq   $0x0,-0x2270(%rbp)
  413326:	00 00 00 00 
  41332a:	48 c7 85 98 dd ff ff 	movq   $0x0,-0x2268(%rbp)
  413331:	00 00 00 00 
  413335:	48 c7 85 a0 dd ff ff 	movq   $0x0,-0x2260(%rbp)
  41333c:	00 00 00 00 
  413340:	48 8d 85 f0 dd ff ff 	lea    -0x2210(%rbp),%rax
  413347:	48 89 85 80 dd ff ff 	mov    %rax,-0x2280(%rbp)
  41334e:	48 8d 85 50 de ff ff 	lea    -0x21b0(%rbp),%rax
  413355:	48 89 85 88 dd ff ff 	mov    %rax,-0x2278(%rbp)
  41335c:	48 8d 85 b0 de ff ff 	lea    -0x2150(%rbp),%rax
  413363:	48 89 85 90 dd ff ff 	mov    %rax,-0x2270(%rbp)
  41336a:	48 8d 85 10 df ff ff 	lea    -0x20f0(%rbp),%rax
  413371:	48 89 85 98 dd ff ff 	mov    %rax,-0x2268(%rbp)
  413378:	48 8d 95 60 dd ff ff 	lea    -0x22a0(%rbp),%rdx
  41337f:	48 8d b5 80 dd ff ff 	lea    -0x2280(%rbp),%rsi
  413386:	48 8d 85 b0 dd ff ff 	lea    -0x2250(%rbp),%rax
  41338d:	b9 ff ff ff ff       	mov    $0xffffffff,%ecx
  413392:	48 89 c7             	mov    %rax,%rdi
  413395:	e8 76 cb ff ff       	callq  40ff10 <_ZN2cv15NAryMatIteratorC1EPPKNS_3MatEPPhi@plt>
  41339a:	48 8d 85 b0 ef ff ff 	lea    -0x1050(%rbp),%rax
  4133a1:	48 89 c7             	mov    %rax,%rdi
  4133a4:	e8 17 b6 00 00       	callq  41e9c0 <_ZN2cv10AutoBufferIfLm1032EEC1Ev>
  4133a9:	48 c7 85 50 dd ff ff 	movq   $0x0,-0x22b0(%rbp)
  4133b0:	00 00 00 00 
  4133b4:	48 c7 85 58 dd ff ff 	movq   $0x0,-0x22a8(%rbp)
  4133bb:	00 00 00 00 
  4133bf:	48 8b 85 d8 dd ff ff 	mov    -0x2228(%rbp),%rax
  4133c6:	89 c2                	mov    %eax,%edx
  4133c8:	8b 85 b0 dc ff ff    	mov    -0x2350(%rbp),%eax
  4133ce:	48 98                	cltq   
  4133d0:	0f af c2             	imul   %edx,%eax
  4133d3:	89 85 58 dc ff ff    	mov    %eax,-0x23a8(%rbp)
  4133d9:	8b 85 b0 dc ff ff    	mov    -0x2350(%rbp),%eax
  4133df:	05 ff 03 00 00       	add    $0x3ff,%eax
  4133e4:	99                   	cltd   
  4133e5:	f7 bd b0 dc ff ff    	idivl  -0x2350(%rbp)
  4133eb:	0f af 85 b0 dc ff ff 	imul   -0x2350(%rbp),%eax
  4133f2:	89 85 60 dc ff ff    	mov    %eax,-0x23a0(%rbp)
  4133f8:	48 8d 95 60 dc ff ff 	lea    -0x23a0(%rbp),%rdx
  4133ff:	48 8d 85 58 dc ff ff 	lea    -0x23a8(%rbp),%rax
  413406:	48 89 d6             	mov    %rdx,%rsi
  413409:	48 89 c7             	mov    %rax,%rdi
  41340c:	e8 b4 b2 00 00       	callq  41e6c5 <_ZSt3minIiERKT_S2_S2_>
  413411:	8b 00                	mov    (%rax),%eax
  413413:	89 85 5c dc ff ff    	mov    %eax,-0x23a4(%rbp)
  413419:	48 8d 85 f0 dd ff ff 	lea    -0x2210(%rbp),%rax
  413420:	48 89 c7             	mov    %rax,%rdi
  413423:	e8 e2 9d 00 00       	callq  41d20a <_ZNK2cv3Mat9elemSize1Ev>
  413428:	48 89 85 10 dd ff ff 	mov    %rax,-0x22f0(%rbp)
  41342f:	83 bd ac dc ff ff 06 	cmpl   $0x6,-0x2354(%rbp)
  413436:	75 51                	jne    413489 <_ZNK14HOGDescriptor215computeGradientERKN2cv3MatERS1_S4_iiiiiiiiiiiPKfPi+0xcbf>
  413438:	8b 85 5c dc ff ff    	mov    -0x23a4(%rbp),%eax
  41343e:	01 c0                	add    %eax,%eax
  413440:	48 63 d0             	movslq %eax,%rdx
  413443:	48 8d 85 b0 ef ff ff 	lea    -0x1050(%rbp),%rax
  41344a:	48 89 d6             	mov    %rdx,%rsi
  41344d:	48 89 c7             	mov    %rax,%rdi
  413450:	e8 b9 b5 00 00       	callq  41ea0e <_ZN2cv10AutoBufferIfLm1032EE8allocateEm>
  413455:	48 8d 85 b0 ef ff ff 	lea    -0x1050(%rbp),%rax
  41345c:	48 89 c7             	mov    %rax,%rdi
  41345f:	e8 06 b6 00 00       	callq  41ea6a <_ZN2cv10AutoBufferIfLm1032EEcvPfEv>
  413464:	48 89 85 50 dd ff ff 	mov    %rax,-0x22b0(%rbp)
  41346b:	48 8b 85 50 dd ff ff 	mov    -0x22b0(%rbp),%rax
  413472:	8b 95 5c dc ff ff    	mov    -0x23a4(%rbp),%edx
  413478:	48 63 d2             	movslq %edx,%rdx
  41347b:	48 c1 e2 02          	shl    $0x2,%rdx
  41347f:	48 01 d0             	add    %rdx,%rax
  413482:	48 89 85 58 dd ff ff 	mov    %rax,-0x22a8(%rbp)
  413489:	48 c7 85 c0 dc ff ff 	movq   $0x0,-0x2340(%rbp)
  413490:	00 00 00 00 
  413494:	e9 13 03 00 00       	jmpq   4137ac <_ZNK14HOGDescriptor215computeGradientERKN2cv3MatERS1_S4_iiiiiiiiiiiPKfPi+0xfe2>
  413499:	c7 85 78 dc ff ff 00 	movl   $0x0,-0x2388(%rbp)
  4134a0:	00 00 00 
  4134a3:	e9 db 02 00 00       	jmpq   413783 <_ZNK14HOGDescriptor215computeGradientERKN2cv3MatERS1_S4_iiiiiiiiiiiPKfPi+0xfb9>
  4134a8:	8b 85 58 dc ff ff    	mov    -0x23a8(%rbp),%eax
  4134ae:	2b 85 78 dc ff ff    	sub    -0x2388(%rbp),%eax
  4134b4:	89 85 60 dc ff ff    	mov    %eax,-0x23a0(%rbp)
  4134ba:	48 8d 95 5c dc ff ff 	lea    -0x23a4(%rbp),%rdx
  4134c1:	48 8d 85 60 dc ff ff 	lea    -0x23a0(%rbp),%rax
  4134c8:	48 89 d6             	mov    %rdx,%rsi
  4134cb:	48 89 c7             	mov    %rax,%rdi
  4134ce:	e8 f2 b1 00 00       	callq  41e6c5 <_ZSt3minIiERKT_S2_S2_>
  4134d3:	8b 00                	mov    (%rax),%eax
  4134d5:	89 85 b4 dc ff ff    	mov    %eax,-0x234c(%rbp)
  4134db:	83 bd ac dc ff ff 05 	cmpl   $0x5,-0x2354(%rbp)
  4134e2:	0f 85 89 00 00 00    	jne    413571 <_ZNK14HOGDescriptor215computeGradientERKN2cv3MatERS1_S4_iiiiiiiiiiiPKfPi+0xda7>
  4134e8:	48 8b 85 60 dd ff ff 	mov    -0x22a0(%rbp),%rax
  4134ef:	48 89 85 18 dd ff ff 	mov    %rax,-0x22e8(%rbp)
  4134f6:	48 8b 85 68 dd ff ff 	mov    -0x2298(%rbp),%rax
  4134fd:	48 89 85 20 dd ff ff 	mov    %rax,-0x22e0(%rbp)
  413504:	48 8b 85 70 dd ff ff 	mov    -0x2290(%rbp),%rax
  41350b:	48 89 85 28 dd ff ff 	mov    %rax,-0x22d8(%rbp)
  413512:	48 8b 85 78 dd ff ff 	mov    -0x2288(%rbp),%rax
  413519:	48 89 85 30 dd ff ff 	mov    %rax,-0x22d0(%rbp)
  413520:	8b 8d b4 dc ff ff    	mov    -0x234c(%rbp),%ecx
  413526:	48 8b 95 28 dd ff ff 	mov    -0x22d8(%rbp),%rdx
  41352d:	48 8b b5 20 dd ff ff 	mov    -0x22e0(%rbp),%rsi
  413534:	48 8b 85 18 dd ff ff 	mov    -0x22e8(%rbp),%rax
  41353b:	48 89 c7             	mov    %rax,%rdi
  41353e:	e8 6e d2 ff ff       	callq  4107b1 <_ZL15Magnitude_2_32fPKfS0_Pfi>
  413543:	8b 8d b4 dc ff ff    	mov    -0x234c(%rbp),%ecx
  413549:	48 8b 95 30 dd ff ff 	mov    -0x22d0(%rbp),%rdx
  413550:	48 8b b5 18 dd ff ff 	mov    -0x22e8(%rbp),%rsi
  413557:	48 8b 85 20 dd ff ff 	mov    -0x22e0(%rbp),%rax
  41355e:	41 b8 00 00 00 00    	mov    $0x0,%r8d
  413564:	48 89 c7             	mov    %rax,%rdi
  413567:	e8 ef d2 ff ff       	callq  41085b <_ZL15FastAtan2_2_32fPKfS0_Pfib>
  41356c:	e9 82 01 00 00       	jmpq   4136f3 <_ZNK14HOGDescriptor215computeGradientERKN2cv3MatERS1_S4_iiiiiiiiiiiPKfPi+0xf29>
  413571:	48 8b 85 60 dd ff ff 	mov    -0x22a0(%rbp),%rax
  413578:	48 89 85 38 dd ff ff 	mov    %rax,-0x22c8(%rbp)
  41357f:	48 8b 85 68 dd ff ff 	mov    -0x2298(%rbp),%rax
  413586:	48 89 85 40 dd ff ff 	mov    %rax,-0x22c0(%rbp)
  41358d:	48 8b 85 78 dd ff ff 	mov    -0x2288(%rbp),%rax
  413594:	48 89 85 48 dd ff ff 	mov    %rax,-0x22b8(%rbp)
  41359b:	48 8b 95 70 dd ff ff 	mov    -0x2290(%rbp),%rdx
  4135a2:	8b 8d b4 dc ff ff    	mov    -0x234c(%rbp),%ecx
  4135a8:	48 8b b5 40 dd ff ff 	mov    -0x22c0(%rbp),%rsi
  4135af:	48 8b 85 38 dd ff ff 	mov    -0x22c8(%rbp),%rax
  4135b6:	48 89 c7             	mov    %rax,%rdi
  4135b9:	e8 3e d1 ff ff       	callq  4106fc <_ZL15Magnitude_2_64fPKdS0_Pdi>
  4135be:	c7 85 7c dc ff ff 00 	movl   $0x0,-0x2384(%rbp)
  4135c5:	00 00 00 
  4135c8:	e9 8b 00 00 00       	jmpq   413658 <_ZNK14HOGDescriptor215computeGradientERKN2cv3MatERS1_S4_iiiiiiiiiiiPKfPi+0xe8e>
  4135cd:	48 8b 85 50 dd ff ff 	mov    -0x22b0(%rbp),%rax
  4135d4:	8b 95 7c dc ff ff    	mov    -0x2384(%rbp),%edx
  4135da:	48 63 d2             	movslq %edx,%rdx
  4135dd:	48 c1 e2 02          	shl    $0x2,%rdx
  4135e1:	48 01 d0             	add    %rdx,%rax
  4135e4:	8b 95 7c dc ff ff    	mov    -0x2384(%rbp),%edx
  4135ea:	48 63 d2             	movslq %edx,%rdx
  4135ed:	48 8d 0c d5 00 00 00 	lea    0x0(,%rdx,8),%rcx
  4135f4:	00 
  4135f5:	48 8b 95 38 dd ff ff 	mov    -0x22c8(%rbp),%rdx
  4135fc:	48 01 ca             	add    %rcx,%rdx
  4135ff:	f2 0f 10 02          	movsd  (%rdx),%xmm0
  413603:	66 0f 14 c0          	unpcklpd %xmm0,%xmm0
  413607:	66 0f 5a c0          	cvtpd2ps %xmm0,%xmm0
  41360b:	f3 0f 11 00          	movss  %xmm0,(%rax)
  41360f:	48 8b 85 58 dd ff ff 	mov    -0x22a8(%rbp),%rax
  413616:	8b 95 7c dc ff ff    	mov    -0x2384(%rbp),%edx
  41361c:	48 63 d2             	movslq %edx,%rdx
  41361f:	48 c1 e2 02          	shl    $0x2,%rdx
  413623:	48 01 d0             	add    %rdx,%rax
  413626:	8b 95 7c dc ff ff    	mov    -0x2384(%rbp),%edx
  41362c:	48 63 d2             	movslq %edx,%rdx
  41362f:	48 8d 0c d5 00 00 00 	lea    0x0(,%rdx,8),%rcx
  413636:	00 
  413637:	48 8b 95 40 dd ff ff 	mov    -0x22c0(%rbp),%rdx
  41363e:	48 01 ca             	add    %rcx,%rdx
  413641:	f2 0f 10 02          	movsd  (%rdx),%xmm0
  413645:	66 0f 14 c0          	unpcklpd %xmm0,%xmm0
  413649:	66 0f 5a c0          	cvtpd2ps %xmm0,%xmm0
  41364d:	f3 0f 11 00          	movss  %xmm0,(%rax)
  413651:	83 85 7c dc ff ff 01 	addl   $0x1,-0x2384(%rbp)
  413658:	8b 85 7c dc ff ff    	mov    -0x2384(%rbp),%eax
  41365e:	3b 85 b4 dc ff ff    	cmp    -0x234c(%rbp),%eax
  413664:	0f 8c 63 ff ff ff    	jl     4135cd <_ZNK14HOGDescriptor215computeGradientERKN2cv3MatERS1_S4_iiiiiiiiiiiPKfPi+0xe03>
  41366a:	48 8b 95 50 dd ff ff 	mov    -0x22b0(%rbp),%rdx
  413671:	48 8b b5 50 dd ff ff 	mov    -0x22b0(%rbp),%rsi
  413678:	48 8b 85 58 dd ff ff 	mov    -0x22a8(%rbp),%rax
  41367f:	8b 8d b4 dc ff ff    	mov    -0x234c(%rbp),%ecx
  413685:	41 b8 00 00 00 00    	mov    $0x0,%r8d
  41368b:	48 89 c7             	mov    %rax,%rdi
  41368e:	e8 c8 d1 ff ff       	callq  41085b <_ZL15FastAtan2_2_32fPKfS0_Pfib>
  413693:	c7 85 7c dc ff ff 00 	movl   $0x0,-0x2384(%rbp)
  41369a:	00 00 00 
  41369d:	eb 46                	jmp    4136e5 <_ZNK14HOGDescriptor215computeGradientERKN2cv3MatERS1_S4_iiiiiiiiiiiPKfPi+0xf1b>
  41369f:	8b 85 7c dc ff ff    	mov    -0x2384(%rbp),%eax
  4136a5:	48 98                	cltq   
  4136a7:	48 8d 14 c5 00 00 00 	lea    0x0(,%rax,8),%rdx
  4136ae:	00 
  4136af:	48 8b 85 48 dd ff ff 	mov    -0x22b8(%rbp),%rax
  4136b6:	48 01 d0             	add    %rdx,%rax
  4136b9:	48 8b 95 50 dd ff ff 	mov    -0x22b0(%rbp),%rdx
  4136c0:	8b 8d 7c dc ff ff    	mov    -0x2384(%rbp),%ecx
  4136c6:	48 63 c9             	movslq %ecx,%rcx
  4136c9:	48 c1 e1 02          	shl    $0x2,%rcx
  4136cd:	48 01 ca             	add    %rcx,%rdx
  4136d0:	f3 0f 10 02          	movss  (%rdx),%xmm0
  4136d4:	0f 14 c0             	unpcklps %xmm0,%xmm0
  4136d7:	0f 5a c0             	cvtps2pd %xmm0,%xmm0
  4136da:	f2 0f 11 00          	movsd  %xmm0,(%rax)
  4136de:	83 85 7c dc ff ff 01 	addl   $0x1,-0x2384(%rbp)
  4136e5:	8b 85 7c dc ff ff    	mov    -0x2384(%rbp),%eax
  4136eb:	3b 85 b4 dc ff ff    	cmp    -0x234c(%rbp),%eax
  4136f1:	7c ac                	jl     41369f <_ZNK14HOGDescriptor215computeGradientERKN2cv3MatERS1_S4_iiiiiiiiiiiPKfPi+0xed5>
  4136f3:	48 8b 95 60 dd ff ff 	mov    -0x22a0(%rbp),%rdx
  4136fa:	8b 85 b4 dc ff ff    	mov    -0x234c(%rbp),%eax
  413700:	48 98                	cltq   
  413702:	48 0f af 85 10 dd ff 	imul   -0x22f0(%rbp),%rax
  413709:	ff 
  41370a:	48 01 d0             	add    %rdx,%rax
  41370d:	48 89 85 60 dd ff ff 	mov    %rax,-0x22a0(%rbp)
  413714:	48 8b 95 68 dd ff ff 	mov    -0x2298(%rbp),%rdx
  41371b:	8b 85 b4 dc ff ff    	mov    -0x234c(%rbp),%eax
  413721:	48 98                	cltq   
  413723:	48 0f af 85 10 dd ff 	imul   -0x22f0(%rbp),%rax
  41372a:	ff 
  41372b:	48 01 d0             	add    %rdx,%rax
  41372e:	48 89 85 68 dd ff ff 	mov    %rax,-0x2298(%rbp)
  413735:	48 8b 95 70 dd ff ff 	mov    -0x2290(%rbp),%rdx
  41373c:	8b 85 b4 dc ff ff    	mov    -0x234c(%rbp),%eax
  413742:	48 98                	cltq   
  413744:	48 0f af 85 10 dd ff 	imul   -0x22f0(%rbp),%rax
  41374b:	ff 
  41374c:	48 01 d0             	add    %rdx,%rax
  41374f:	48 89 85 70 dd ff ff 	mov    %rax,-0x2290(%rbp)
  413756:	48 8b 95 78 dd ff ff 	mov    -0x2288(%rbp),%rdx
  41375d:	8b 85 b4 dc ff ff    	mov    -0x234c(%rbp),%eax
  413763:	48 98                	cltq   
  413765:	48 0f af 85 10 dd ff 	imul   -0x22f0(%rbp),%rax
  41376c:	ff 
  41376d:	48 01 d0             	add    %rdx,%rax
  413770:	48 89 85 78 dd ff ff 	mov    %rax,-0x2288(%rbp)
  413777:	8b 85 5c dc ff ff    	mov    -0x23a4(%rbp),%eax
  41377d:	01 85 78 dc ff ff    	add    %eax,-0x2388(%rbp)
  413783:	8b 85 58 dc ff ff    	mov    -0x23a8(%rbp),%eax
  413789:	39 85 78 dc ff ff    	cmp    %eax,-0x2388(%rbp)
  41378f:	0f 8c 13 fd ff ff    	jl     4134a8 <_ZNK14HOGDescriptor215computeGradientERKN2cv3MatERS1_S4_iiiiiiiiiiiPKfPi+0xcde>
  413795:	48 83 85 c0 dc ff ff 	addq   $0x1,-0x2340(%rbp)
  41379c:	01 
  41379d:	48 8d 85 b0 dd ff ff 	lea    -0x2250(%rbp),%rax
  4137a4:	48 89 c7             	mov    %rax,%rdi
  4137a7:	e8 74 c5 ff ff       	callq  40fd20 <_ZN2cv15NAryMatIteratorppEv@plt>
  4137ac:	48 8b 85 d0 dd ff ff 	mov    -0x2230(%rbp),%rax
  4137b3:	48 3b 85 c0 dc ff ff 	cmp    -0x2340(%rbp),%rax
  4137ba:	0f 87 d9 fc ff ff    	ja     413499 <_ZNK14HOGDescriptor215computeGradientERKN2cv3MatERS1_S4_iiiiiiiiiiiPKfPi+0xccf>
  4137c0:	c7 85 64 dc ff ff 00 	movl   $0x0,-0x239c(%rbp)
  4137c7:	00 00 00 
  4137ca:	e9 d3 01 00 00       	jmpq   4139a2 <_ZNK14HOGDescriptor215computeGradientERKN2cv3MatERS1_S4_iiiiiiiiiiiPKfPi+0x11d8>
  4137cf:	8b 85 88 dc ff ff    	mov    -0x2378(%rbp),%eax
  4137d5:	8d 14 00             	lea    (%rax,%rax,1),%edx
  4137d8:	8b 85 64 dc ff ff    	mov    -0x239c(%rbp),%eax
  4137de:	01 d0                	add    %edx,%eax
  4137e0:	48 98                	cltq   
  4137e2:	48 8d 14 85 00 00 00 	lea    0x0(,%rax,4),%rdx
  4137e9:	00 
  4137ea:	48 8b 85 d0 dc ff ff 	mov    -0x2330(%rbp),%rax
  4137f1:	48 01 d0             	add    %rdx,%rax
  4137f4:	8b 00                	mov    (%rax),%eax
  4137f6:	89 85 b8 dc ff ff    	mov    %eax,-0x2348(%rbp)
  4137fc:	8b 95 88 dc ff ff    	mov    -0x2378(%rbp),%edx
  413802:	89 d0                	mov    %edx,%eax
  413804:	01 c0                	add    %eax,%eax
  413806:	01 c2                	add    %eax,%edx
  413808:	8b 85 64 dc ff ff    	mov    -0x239c(%rbp),%eax
  41380e:	01 d0                	add    %edx,%eax
  413810:	48 98                	cltq   
  413812:	48 8d 14 85 00 00 00 	lea    0x0(,%rax,4),%rdx
  413819:	00 
  41381a:	48 8b 85 d0 dc ff ff 	mov    -0x2330(%rbp),%rax
  413821:	48 01 d0             	add    %rdx,%rax
  413824:	f3 0f 10 00          	movss  (%rax),%xmm0
  413828:	f3 0f 59 85 90 dc ff 	mulss  -0x2370(%rbp),%xmm0
  41382f:	ff 
  413830:	f3 0f 10 0d b8 c8 01 	movss  0x1c8b8(%rip),%xmm1        # 4300f0 <_ZZN2cv9partitionINS_5Rect_IiEE13SimilarRects2EEiRKSt6vectorIT_SaIS5_EERS4_IiSaIiEET0_E19__PRETTY_FUNCTION__+0xf0>
  413837:	00 
  413838:	f3 0f 5c c1          	subss  %xmm1,%xmm0
  41383c:	f3 0f 11 85 bc dc ff 	movss  %xmm0,-0x2344(%rbp)
  413843:	ff 
  413844:	f3 0f 10 85 bc dc ff 	movss  -0x2344(%rbp),%xmm0
  41384b:	ff 
  41384c:	0f 5a c0             	cvtps2pd %xmm0,%xmm0
  41384f:	e8 83 8b 00 00       	callq  41c3d7 <_Z7cvFloord>
  413854:	89 85 80 dc ff ff    	mov    %eax,-0x2380(%rbp)
  41385a:	f3 0f 2a 85 80 dc ff 	cvtsi2ssl -0x2380(%rbp),%xmm0
  413861:	ff 
  413862:	f3 0f 10 8d bc dc ff 	movss  -0x2344(%rbp),%xmm1
  413869:	ff 
  41386a:	f3 0f 5c c8          	subss  %xmm0,%xmm1
  41386e:	0f 28 c1             	movaps %xmm1,%xmm0
  413871:	f3 0f 11 85 bc dc ff 	movss  %xmm0,-0x2344(%rbp)
  413878:	ff 
  413879:	8b 85 64 dc ff ff    	mov    -0x239c(%rbp),%eax
  41387f:	48 98                	cltq   
  413881:	48 8d 14 c5 00 00 00 	lea    0x0(,%rax,8),%rdx
  413888:	00 
  413889:	48 8b 85 f0 dc ff ff 	mov    -0x2310(%rbp),%rax
  413890:	48 01 d0             	add    %rdx,%rax
  413893:	f3 0f 10 05 05 c8 01 	movss  0x1c805(%rip),%xmm0        # 4300a0 <_ZZN2cv9partitionINS_5Rect_IiEE13SimilarRects2EEiRKSt6vectorIT_SaIS5_EERS4_IiSaIiEET0_E19__PRETTY_FUNCTION__+0xa0>
  41389a:	00 
  41389b:	f3 0f 5c 85 bc dc ff 	subss  -0x2344(%rbp),%xmm0
  4138a2:	ff 
  4138a3:	f3 0f 59 85 b8 dc ff 	mulss  -0x2348(%rbp),%xmm0
  4138aa:	ff 
  4138ab:	f3 0f 11 00          	movss  %xmm0,(%rax)
  4138af:	8b 85 64 dc ff ff    	mov    -0x239c(%rbp),%eax
  4138b5:	48 98                	cltq   
  4138b7:	48 c1 e0 03          	shl    $0x3,%rax
  4138bb:	48 8d 50 04          	lea    0x4(%rax),%rdx
  4138bf:	48 8b 85 f0 dc ff ff 	mov    -0x2310(%rbp),%rax
  4138c6:	48 01 d0             	add    %rdx,%rax
  4138c9:	f3 0f 10 85 b8 dc ff 	movss  -0x2348(%rbp),%xmm0
  4138d0:	ff 
  4138d1:	f3 0f 59 85 bc dc ff 	mulss  -0x2344(%rbp),%xmm0
  4138d8:	ff 
  4138d9:	f3 0f 11 00          	movss  %xmm0,(%rax)
  4138dd:	83 bd 80 dc ff ff 00 	cmpl   $0x0,-0x2380(%rbp)
  4138e4:	79 0e                	jns    4138f4 <_ZNK14HOGDescriptor215computeGradientERKN2cv3MatERS1_S4_iiiiiiiiiiiPKfPi+0x112a>
  4138e6:	8b 85 8c dc ff ff    	mov    -0x2374(%rbp),%eax
  4138ec:	01 85 80 dc ff ff    	add    %eax,-0x2380(%rbp)
  4138f2:	eb 1a                	jmp    41390e <_ZNK14HOGDescriptor215computeGradientERKN2cv3MatERS1_S4_iiiiiiiiiiiPKfPi+0x1144>
  4138f4:	8b 85 80 dc ff ff    	mov    -0x2380(%rbp),%eax
  4138fa:	3b 85 8c dc ff ff    	cmp    -0x2374(%rbp),%eax
  413900:	7c 0c                	jl     41390e <_ZNK14HOGDescriptor215computeGradientERKN2cv3MatERS1_S4_iiiiiiiiiiiPKfPi+0x1144>
  413902:	8b 85 8c dc ff ff    	mov    -0x2374(%rbp),%eax
  413908:	29 85 80 dc ff ff    	sub    %eax,-0x2380(%rbp)
  41390e:	8b 95 80 dc ff ff    	mov    -0x2380(%rbp),%edx
  413914:	8b 85 8c dc ff ff    	mov    -0x2374(%rbp),%eax
  41391a:	39 c2                	cmp    %eax,%edx
  41391c:	72 19                	jb     413937 <_ZNK14HOGDescriptor215computeGradientERKN2cv3MatERS1_S4_iiiiiiiiiiiPKfPi+0x116d>
  41391e:	b9 c0 a3 42 00       	mov    $0x42a3c0,%ecx
  413923:	ba 6b 02 00 00       	mov    $0x26b,%edx
  413928:	be 19 9d 42 00       	mov    $0x429d19,%esi
  41392d:	bf 80 9f 42 00       	mov    $0x429f80,%edi
  413932:	e8 79 c4 ff ff       	callq  40fdb0 <__assert_fail@plt>
  413937:	8b 85 64 dc ff ff    	mov    -0x239c(%rbp),%eax
  41393d:	01 c0                	add    %eax,%eax
  41393f:	48 63 d0             	movslq %eax,%rdx
  413942:	48 8b 85 f8 dc ff ff 	mov    -0x2308(%rbp),%rax
  413949:	48 01 c2             	add    %rax,%rdx
  41394c:	8b 85 80 dc ff ff    	mov    -0x2380(%rbp),%eax
  413952:	88 02                	mov    %al,(%rdx)
  413954:	83 85 80 dc ff ff 01 	addl   $0x1,-0x2380(%rbp)
  41395b:	8b 85 80 dc ff ff    	mov    -0x2380(%rbp),%eax
  413961:	3b 85 8c dc ff ff    	cmp    -0x2374(%rbp),%eax
  413967:	7d 07                	jge    413970 <_ZNK14HOGDescriptor215computeGradientERKN2cv3MatERS1_S4_iiiiiiiiiiiPKfPi+0x11a6>
  413969:	b8 ff ff ff ff       	mov    $0xffffffff,%eax
  41396e:	eb 05                	jmp    413975 <_ZNK14HOGDescriptor215computeGradientERKN2cv3MatERS1_S4_iiiiiiiiiiiPKfPi+0x11ab>
  413970:	b8 00 00 00 00       	mov    $0x0,%eax
  413975:	21 85 80 dc ff ff    	and    %eax,-0x2380(%rbp)
  41397b:	8b 85 64 dc ff ff    	mov    -0x239c(%rbp),%eax
  413981:	01 c0                	add    %eax,%eax
  413983:	48 98                	cltq   
  413985:	48 8d 50 01          	lea    0x1(%rax),%rdx
  413989:	48 8b 85 f8 dc ff ff 	mov    -0x2308(%rbp),%rax
  413990:	48 01 c2             	add    %rax,%rdx
  413993:	8b 85 80 dc ff ff    	mov    -0x2380(%rbp),%eax
  413999:	88 02                	mov    %al,(%rdx)
  41399b:	83 85 64 dc ff ff 01 	addl   $0x1,-0x239c(%rbp)
  4139a2:	8b 85 64 dc ff ff    	mov    -0x239c(%rbp),%eax
  4139a8:	3b 85 88 dc ff ff    	cmp    -0x2378(%rbp),%eax
  4139ae:	0f 8c 1b fe ff ff    	jl     4137cf <_ZNK14HOGDescriptor215computeGradientERKN2cv3MatERS1_S4_iiiiiiiiiiiPKfPi+0x1005>
  4139b4:	48 8d 85 b0 ef ff ff 	lea    -0x1050(%rbp),%rax
  4139bb:	48 89 c7             	mov    %rax,%rdi
  4139be:	e8 2b b0 00 00       	callq  41e9ee <_ZN2cv10AutoBufferIfLm1032EED1Ev>
  4139c3:	83 85 68 dc ff ff 01 	addl   $0x1,-0x2398(%rbp)
  4139ca:	8b 85 68 dc ff ff    	mov    -0x2398(%rbp),%eax
  4139d0:	3b 45 28             	cmp    0x28(%rbp),%eax
  4139d3:	0f 8c 9f f0 ff ff    	jl     412a78 <_ZNK14HOGDescriptor215computeGradientERKN2cv3MatERS1_S4_iiiiiiiiiiiPKfPi+0x2ae>
  4139d9:	48 8d 85 10 df ff ff 	lea    -0x20f0(%rbp),%rax
  4139e0:	48 89 c7             	mov    %rax,%rdi
  4139e3:	e8 e0 94 00 00       	callq  41cec8 <_ZN2cv3MatD1Ev>
  4139e8:	48 8d 85 b0 de ff ff 	lea    -0x2150(%rbp),%rax
  4139ef:	48 89 c7             	mov    %rax,%rdi
  4139f2:	e8 d1 94 00 00       	callq  41cec8 <_ZN2cv3MatD1Ev>
  4139f7:	48 8d 85 50 de ff ff 	lea    -0x21b0(%rbp),%rax
  4139fe:	48 89 c7             	mov    %rax,%rdi
  413a01:	e8 c2 94 00 00       	callq  41cec8 <_ZN2cv3MatD1Ev>
  413a06:	48 8d 85 f0 dd ff ff 	lea    -0x2210(%rbp),%rax
  413a0d:	48 89 c7             	mov    %rax,%rdi
  413a10:	e8 b3 94 00 00       	callq  41cec8 <_ZN2cv3MatD1Ev>
  413a15:	48 8d 85 70 df ff ff 	lea    -0x2090(%rbp),%rax
  413a1c:	48 89 c7             	mov    %rax,%rdi
  413a1f:	e8 ca af 00 00       	callq  41e9ee <_ZN2cv10AutoBufferIfLm1032EED1Ev>
  413a24:	e9 03 01 00 00       	jmpq   413b2c <_ZNK14HOGDescriptor215computeGradientERKN2cv3MatERS1_S4_iiiiiiiiiiiPKfPi+0x1362>
  413a29:	48 89 c3             	mov    %rax,%rbx
  413a2c:	48 8d 85 b0 ef ff ff 	lea    -0x1050(%rbp),%rax
  413a33:	48 89 c7             	mov    %rax,%rdi
  413a36:	e8 f5 c5 ff ff       	callq  410030 <_ZN2cv9ExceptionD1Ev@plt>
  413a3b:	eb 03                	jmp    413a40 <_ZNK14HOGDescriptor215computeGradientERKN2cv3MatERS1_S4_iiiiiiiiiiiPKfPi+0x1276>
  413a3d:	48 89 c3             	mov    %rax,%rbx
  413a40:	48 8d 85 60 dd ff ff 	lea    -0x22a0(%rbp),%rax
  413a47:	48 89 c7             	mov    %rax,%rdi
  413a4a:	e8 31 c8 ff ff       	callq  410280 <_ZNSsD1Ev@plt>
  413a4f:	eb 03                	jmp    413a54 <_ZNK14HOGDescriptor215computeGradientERKN2cv3MatERS1_S4_iiiiiiiiiiiPKfPi+0x128a>
  413a51:	48 89 c3             	mov    %rax,%rbx
  413a54:	48 8d 85 5c dc ff ff 	lea    -0x23a4(%rbp),%rax
  413a5b:	48 89 c7             	mov    %rax,%rdi
  413a5e:	e8 4d c8 ff ff       	callq  4102b0 <_ZNSaIcED1Ev@plt>
  413a63:	48 8d 85 80 dd ff ff 	lea    -0x2280(%rbp),%rax
  413a6a:	48 89 c7             	mov    %rax,%rdi
  413a6d:	e8 0e c8 ff ff       	callq  410280 <_ZNSsD1Ev@plt>
  413a72:	eb 03                	jmp    413a77 <_ZNK14HOGDescriptor215computeGradientERKN2cv3MatERS1_S4_iiiiiiiiiiiPKfPi+0x12ad>
  413a74:	48 89 c3             	mov    %rax,%rbx
  413a77:	48 8d 85 60 dc ff ff 	lea    -0x23a0(%rbp),%rax
  413a7e:	48 89 c7             	mov    %rax,%rdi
  413a81:	e8 2a c8 ff ff       	callq  4102b0 <_ZNSaIcED1Ev@plt>
  413a86:	48 8d 85 b0 dd ff ff 	lea    -0x2250(%rbp),%rax
  413a8d:	48 89 c7             	mov    %rax,%rdi
  413a90:	e8 eb c7 ff ff       	callq  410280 <_ZNSsD1Ev@plt>
  413a95:	eb 03                	jmp    413a9a <_ZNK14HOGDescriptor215computeGradientERKN2cv3MatERS1_S4_iiiiiiiiiiiPKfPi+0x12d0>
  413a97:	48 89 c3             	mov    %rax,%rbx
  413a9a:	48 8d 85 50 dd ff ff 	lea    -0x22b0(%rbp),%rax
  413aa1:	48 89 c7             	mov    %rax,%rdi
  413aa4:	e8 07 c8 ff ff       	callq  4102b0 <_ZNSaIcED1Ev@plt>
  413aa9:	eb 17                	jmp    413ac2 <_ZNK14HOGDescriptor215computeGradientERKN2cv3MatERS1_S4_iiiiiiiiiiiPKfPi+0x12f8>
  413aab:	48 89 c3             	mov    %rax,%rbx
  413aae:	48 8d 85 b0 ef ff ff 	lea    -0x1050(%rbp),%rax
  413ab5:	48 89 c7             	mov    %rax,%rdi
  413ab8:	e8 31 af 00 00       	callq  41e9ee <_ZN2cv10AutoBufferIfLm1032EED1Ev>
  413abd:	eb 03                	jmp    413ac2 <_ZNK14HOGDescriptor215computeGradientERKN2cv3MatERS1_S4_iiiiiiiiiiiPKfPi+0x12f8>
  413abf:	48 89 c3             	mov    %rax,%rbx
  413ac2:	48 8d 85 10 df ff ff 	lea    -0x20f0(%rbp),%rax
  413ac9:	48 89 c7             	mov    %rax,%rdi
  413acc:	e8 f7 93 00 00       	callq  41cec8 <_ZN2cv3MatD1Ev>
  413ad1:	eb 03                	jmp    413ad6 <_ZNK14HOGDescriptor215computeGradientERKN2cv3MatERS1_S4_iiiiiiiiiiiPKfPi+0x130c>
  413ad3:	48 89 c3             	mov    %rax,%rbx
  413ad6:	48 8d 85 b0 de ff ff 	lea    -0x2150(%rbp),%rax
  413add:	48 89 c7             	mov    %rax,%rdi
  413ae0:	e8 e3 93 00 00       	callq  41cec8 <_ZN2cv3MatD1Ev>
  413ae5:	eb 03                	jmp    413aea <_ZNK14HOGDescriptor215computeGradientERKN2cv3MatERS1_S4_iiiiiiiiiiiPKfPi+0x1320>
  413ae7:	48 89 c3             	mov    %rax,%rbx
  413aea:	48 8d 85 50 de ff ff 	lea    -0x21b0(%rbp),%rax
  413af1:	48 89 c7             	mov    %rax,%rdi
  413af4:	e8 cf 93 00 00       	callq  41cec8 <_ZN2cv3MatD1Ev>
  413af9:	eb 03                	jmp    413afe <_ZNK14HOGDescriptor215computeGradientERKN2cv3MatERS1_S4_iiiiiiiiiiiPKfPi+0x1334>
  413afb:	48 89 c3             	mov    %rax,%rbx
  413afe:	48 8d 85 f0 dd ff ff 	lea    -0x2210(%rbp),%rax
  413b05:	48 89 c7             	mov    %rax,%rdi
  413b08:	e8 bb 93 00 00       	callq  41cec8 <_ZN2cv3MatD1Ev>
  413b0d:	eb 03                	jmp    413b12 <_ZNK14HOGDescriptor215computeGradientERKN2cv3MatERS1_S4_iiiiiiiiiiiPKfPi+0x1348>
  413b0f:	48 89 c3             	mov    %rax,%rbx
  413b12:	48 8d 85 70 df ff ff 	lea    -0x2090(%rbp),%rax
  413b19:	48 89 c7             	mov    %rax,%rdi
  413b1c:	e8 cd ae 00 00       	callq  41e9ee <_ZN2cv10AutoBufferIfLm1032EED1Ev>
  413b21:	48 89 d8             	mov    %rbx,%rax
  413b24:	48 89 c7             	mov    %rax,%rdi
  413b27:	e8 64 c4 ff ff       	callq  40ff90 <_Unwind_Resume@plt>
  413b2c:	48 81 c4 d8 23 00 00 	add    $0x23d8,%rsp
  413b33:	5b                   	pop    %rbx
  413b34:	5d                   	pop    %rbp
  413b35:	c3                   	retq   

0000000000413b36 <_ZN9HOGCache2C1Ev>:
  413b36:	55                   	push   %rbp
  413b37:	48 89 e5             	mov    %rsp,%rbp
  413b3a:	53                   	push   %rbx
  413b3b:	48 83 ec 18          	sub    $0x18,%rsp
  413b3f:	e8 bc c5 ff ff       	callq  410100 <mcount@plt>
  413b44:	48 89 7d e8          	mov    %rdi,-0x18(%rbp)
  413b48:	48 8b 45 e8          	mov    -0x18(%rbp),%rax
  413b4c:	48 c7 00 90 01 43 00 	movq   $0x430190,(%rax)
  413b53:	48 8b 45 e8          	mov    -0x18(%rbp),%rax
  413b57:	48 83 c0 08          	add    $0x8,%rax
  413b5b:	48 89 c7             	mov    %rax,%rdi
  413b5e:	e8 5b b3 00 00       	callq  41eebe <_ZNSt6vectorIN9HOGCache27PixDataESaIS1_EEC1Ev>
  413b63:	48 8b 45 e8          	mov    -0x18(%rbp),%rax
  413b67:	48 83 c0 20          	add    $0x20,%rax
  413b6b:	48 89 c7             	mov    %rax,%rdi
  413b6e:	e8 6b b3 00 00       	callq  41eede <_ZNSt6vectorIN9HOGCache29BlockDataESaIS1_EEC1Ev>
  413b73:	48 8b 45 e8          	mov    -0x18(%rbp),%rax
  413b77:	48 83 c0 40          	add    $0x40,%rax
  413b7b:	48 89 c7             	mov    %rax,%rdi
  413b7e:	e8 d1 ab 00 00       	callq  41e754 <_ZNSt6vectorIiSaIiEEC1Ev>
  413b83:	48 8b 45 e8          	mov    -0x18(%rbp),%rax
  413b87:	48 83 c0 58          	add    $0x58,%rax
  413b8b:	48 89 c7             	mov    %rax,%rdi
  413b8e:	e8 a9 ac 00 00       	callq  41e83c <_ZN2cv5Size_IiEC1Ev>
  413b93:	48 8b 45 e8          	mov    -0x18(%rbp),%rax
  413b97:	48 83 c0 60          	add    $0x60,%rax
  413b9b:	48 89 c7             	mov    %rax,%rdi
  413b9e:	e8 99 ac 00 00       	callq  41e83c <_ZN2cv5Size_IiEC1Ev>
  413ba3:	48 8b 45 e8          	mov    -0x18(%rbp),%rax
  413ba7:	48 83 c0 68          	add    $0x68,%rax
  413bab:	48 89 c7             	mov    %rax,%rdi
  413bae:	e8 89 ac 00 00       	callq  41e83c <_ZN2cv5Size_IiEC1Ev>
  413bb3:	48 8b 45 e8          	mov    -0x18(%rbp),%rax
  413bb7:	48 83 c0 70          	add    $0x70,%rax
  413bbb:	48 89 c7             	mov    %rax,%rdi
  413bbe:	e8 79 ac 00 00       	callq  41e83c <_ZN2cv5Size_IiEC1Ev>
  413bc3:	48 8b 45 e8          	mov    -0x18(%rbp),%rax
  413bc7:	48 05 88 00 00 00    	add    $0x88,%rax
  413bcd:	48 89 c7             	mov    %rax,%rdi
  413bd0:	e8 97 aa 00 00       	callq  41e66c <_ZN2cv6Point_IiEC1Ev>
  413bd5:	48 8b 45 e8          	mov    -0x18(%rbp),%rax
  413bd9:	48 05 90 00 00 00    	add    $0x90,%rax
  413bdf:	48 89 c7             	mov    %rax,%rdi
  413be2:	e8 17 b3 00 00       	callq  41eefe <_ZN2cv4Mat_IfEC1Ev>
  413be7:	48 8b 45 e8          	mov    -0x18(%rbp),%rax
  413beb:	48 05 f0 00 00 00    	add    $0xf0,%rax
  413bf1:	48 89 c7             	mov    %rax,%rdi
  413bf4:	e8 3b b3 00 00       	callq  41ef34 <_ZN2cv4Mat_IhEC1Ev>
  413bf9:	48 8b 45 e8          	mov    -0x18(%rbp),%rax
  413bfd:	48 05 50 01 00 00    	add    $0x150,%rax
  413c03:	48 89 c7             	mov    %rax,%rdi
  413c06:	e8 af 8d 00 00       	callq  41c9ba <_ZN2cv3MatC1Ev>
  413c0b:	48 8b 45 e8          	mov    -0x18(%rbp),%rax
  413c0f:	48 05 b0 01 00 00    	add    $0x1b0,%rax
  413c15:	48 89 c7             	mov    %rax,%rdi
  413c18:	e8 9d 8d 00 00       	callq  41c9ba <_ZN2cv3MatC1Ev>
  413c1d:	48 8b 45 e8          	mov    -0x18(%rbp),%rax
  413c21:	c6 40 38 00          	movb   $0x0,0x38(%rax)
  413c25:	48 8b 45 e8          	mov    -0x18(%rbp),%rax
  413c29:	c7 80 84 00 00 00 00 	movl   $0x0,0x84(%rax)
  413c30:	00 00 00 
  413c33:	48 8b 45 e8          	mov    -0x18(%rbp),%rax
  413c37:	8b 90 84 00 00 00    	mov    0x84(%rax),%edx
  413c3d:	48 8b 45 e8          	mov    -0x18(%rbp),%rax
  413c41:	89 90 80 00 00 00    	mov    %edx,0x80(%rax)
  413c47:	48 8b 45 e8          	mov    -0x18(%rbp),%rax
  413c4b:	8b 90 80 00 00 00    	mov    0x80(%rax),%edx
  413c51:	48 8b 45 e8          	mov    -0x18(%rbp),%rax
  413c55:	89 50 7c             	mov    %edx,0x7c(%rax)
  413c58:	48 8b 45 e8          	mov    -0x18(%rbp),%rax
  413c5c:	8b 50 7c             	mov    0x7c(%rax),%edx
  413c5f:	48 8b 45 e8          	mov    -0x18(%rbp),%rax
  413c63:	89 50 78             	mov    %edx,0x78(%rax)
  413c66:	48 8b 45 e8          	mov    -0x18(%rbp),%rax
  413c6a:	48 c7 80 10 02 00 00 	movq   $0x0,0x210(%rax)
  413c71:	00 00 00 00 
  413c75:	eb 5f                	jmp    413cd6 <_ZN9HOGCache2C1Ev+0x1a0>
  413c77:	48 89 c3             	mov    %rax,%rbx
  413c7a:	48 8b 45 e8          	mov    -0x18(%rbp),%rax
  413c7e:	48 05 90 00 00 00    	add    $0x90,%rax
  413c84:	48 89 c7             	mov    %rax,%rdi
  413c87:	e8 5e 9e 00 00       	callq  41daea <_ZN2cv4Mat_IfED1Ev>
  413c8c:	eb 03                	jmp    413c91 <_ZN9HOGCache2C1Ev+0x15b>
  413c8e:	48 89 c3             	mov    %rax,%rbx
  413c91:	48 8b 45 e8          	mov    -0x18(%rbp),%rax
  413c95:	48 83 c0 40          	add    $0x40,%rax
  413c99:	48 89 c7             	mov    %rax,%rdi
  413c9c:	e8 d3 aa 00 00       	callq  41e774 <_ZNSt6vectorIiSaIiEED1Ev>
  413ca1:	eb 03                	jmp    413ca6 <_ZN9HOGCache2C1Ev+0x170>
  413ca3:	48 89 c3             	mov    %rax,%rbx
  413ca6:	48 8b 45 e8          	mov    -0x18(%rbp),%rax
  413caa:	48 83 c0 20          	add    $0x20,%rax
  413cae:	48 89 c7             	mov    %rax,%rdi
  413cb1:	e8 9e b1 00 00       	callq  41ee54 <_ZNSt6vectorIN9HOGCache29BlockDataESaIS1_EED1Ev>
  413cb6:	eb 03                	jmp    413cbb <_ZN9HOGCache2C1Ev+0x185>
  413cb8:	48 89 c3             	mov    %rax,%rbx
  413cbb:	48 8b 45 e8          	mov    -0x18(%rbp),%rax
  413cbf:	48 83 c0 08          	add    $0x8,%rax
  413cc3:	48 89 c7             	mov    %rax,%rdi
  413cc6:	e8 1f b1 00 00       	callq  41edea <_ZNSt6vectorIN9HOGCache27PixDataESaIS1_EED1Ev>
  413ccb:	48 89 d8             	mov    %rbx,%rax
  413cce:	48 89 c7             	mov    %rax,%rdi
  413cd1:	e8 ba c2 ff ff       	callq  40ff90 <_Unwind_Resume@plt>
  413cd6:	48 83 c4 18          	add    $0x18,%rsp
  413cda:	5b                   	pop    %rbx
  413cdb:	5d                   	pop    %rbp
  413cdc:	c3                   	retq   
  413cdd:	90                   	nop

0000000000413cde <_ZN9HOGCache2C1EPK14HOGDescriptor2RKN2cv3MatENS3_5Size_IiEES8_bS8_>:
  413cde:	55                   	push   %rbp
  413cdf:	48 89 e5             	mov    %rsp,%rbp
  413ce2:	53                   	push   %rbx
  413ce3:	48 83 ec 78          	sub    $0x78,%rsp
  413ce7:	e8 14 c4 ff ff       	callq  410100 <mcount@plt>
  413cec:	48 89 7d b8          	mov    %rdi,-0x48(%rbp)
  413cf0:	48 89 75 b0          	mov    %rsi,-0x50(%rbp)
  413cf4:	48 89 55 a8          	mov    %rdx,-0x58(%rbp)
  413cf8:	48 89 4d a0          	mov    %rcx,-0x60(%rbp)
  413cfc:	4c 89 45 98          	mov    %r8,-0x68(%rbp)
  413d00:	44 89 c8             	mov    %r9d,%eax
  413d03:	88 45 94             	mov    %al,-0x6c(%rbp)
  413d06:	48 8b 45 b8          	mov    -0x48(%rbp),%rax
  413d0a:	48 c7 00 90 01 43 00 	movq   $0x430190,(%rax)
  413d11:	48 8b 45 b8          	mov    -0x48(%rbp),%rax
  413d15:	48 83 c0 08          	add    $0x8,%rax
  413d19:	48 89 c7             	mov    %rax,%rdi
  413d1c:	e8 9d b1 00 00       	callq  41eebe <_ZNSt6vectorIN9HOGCache27PixDataESaIS1_EEC1Ev>
  413d21:	48 8b 45 b8          	mov    -0x48(%rbp),%rax
  413d25:	48 83 c0 20          	add    $0x20,%rax
  413d29:	48 89 c7             	mov    %rax,%rdi
  413d2c:	e8 ad b1 00 00       	callq  41eede <_ZNSt6vectorIN9HOGCache29BlockDataESaIS1_EEC1Ev>
  413d31:	48 8b 45 b8          	mov    -0x48(%rbp),%rax
  413d35:	48 83 c0 40          	add    $0x40,%rax
  413d39:	48 89 c7             	mov    %rax,%rdi
  413d3c:	e8 13 aa 00 00       	callq  41e754 <_ZNSt6vectorIiSaIiEEC1Ev>
  413d41:	48 8b 45 b8          	mov    -0x48(%rbp),%rax
  413d45:	48 83 c0 58          	add    $0x58,%rax
  413d49:	48 89 c7             	mov    %rax,%rdi
  413d4c:	e8 eb aa 00 00       	callq  41e83c <_ZN2cv5Size_IiEC1Ev>
  413d51:	48 8b 45 b8          	mov    -0x48(%rbp),%rax
  413d55:	48 83 c0 60          	add    $0x60,%rax
  413d59:	48 89 c7             	mov    %rax,%rdi
  413d5c:	e8 db aa 00 00       	callq  41e83c <_ZN2cv5Size_IiEC1Ev>
  413d61:	48 8b 45 b8          	mov    -0x48(%rbp),%rax
  413d65:	48 83 c0 68          	add    $0x68,%rax
  413d69:	48 89 c7             	mov    %rax,%rdi
  413d6c:	e8 cb aa 00 00       	callq  41e83c <_ZN2cv5Size_IiEC1Ev>
  413d71:	48 8b 45 b8          	mov    -0x48(%rbp),%rax
  413d75:	48 83 c0 70          	add    $0x70,%rax
  413d79:	48 89 c7             	mov    %rax,%rdi
  413d7c:	e8 bb aa 00 00       	callq  41e83c <_ZN2cv5Size_IiEC1Ev>
  413d81:	48 8b 45 b8          	mov    -0x48(%rbp),%rax
  413d85:	48 05 88 00 00 00    	add    $0x88,%rax
  413d8b:	48 89 c7             	mov    %rax,%rdi
  413d8e:	e8 d9 a8 00 00       	callq  41e66c <_ZN2cv6Point_IiEC1Ev>
  413d93:	48 8b 45 b8          	mov    -0x48(%rbp),%rax
  413d97:	48 05 90 00 00 00    	add    $0x90,%rax
  413d9d:	48 89 c7             	mov    %rax,%rdi
  413da0:	e8 59 b1 00 00       	callq  41eefe <_ZN2cv4Mat_IfEC1Ev>
  413da5:	48 8b 45 b8          	mov    -0x48(%rbp),%rax
  413da9:	48 05 f0 00 00 00    	add    $0xf0,%rax
  413daf:	48 89 c7             	mov    %rax,%rdi
  413db2:	e8 7d b1 00 00       	callq  41ef34 <_ZN2cv4Mat_IhEC1Ev>
  413db7:	48 8b 45 b8          	mov    -0x48(%rbp),%rax
  413dbb:	48 05 50 01 00 00    	add    $0x150,%rax
  413dc1:	48 89 c7             	mov    %rax,%rdi
  413dc4:	e8 f1 8b 00 00       	callq  41c9ba <_ZN2cv3MatC1Ev>
  413dc9:	48 8b 45 b8          	mov    -0x48(%rbp),%rax
  413dcd:	48 05 b0 01 00 00    	add    $0x1b0,%rax
  413dd3:	48 89 c7             	mov    %rax,%rdi
  413dd6:	e8 df 8b 00 00       	callq  41c9ba <_ZN2cv3MatC1Ev>
  413ddb:	48 8d 45 e0          	lea    -0x20(%rbp),%rax
  413ddf:	48 8b 75 10          	mov    0x10(%rbp),%rsi
  413de3:	48 89 c7             	mov    %rax,%rdi
  413de6:	e8 1f aa 00 00       	callq  41e80a <_ZN2cv5Size_IiEC1ERKS1_>
  413deb:	0f b6 5d 94          	movzbl -0x6c(%rbp),%ebx
  413def:	48 8b 55 98          	mov    -0x68(%rbp),%rdx
  413df3:	48 8d 45 d0          	lea    -0x30(%rbp),%rax
  413df7:	48 89 d6             	mov    %rdx,%rsi
  413dfa:	48 89 c7             	mov    %rax,%rdi
  413dfd:	e8 08 aa 00 00       	callq  41e80a <_ZN2cv5Size_IiEC1ERKS1_>
  413e02:	48 8b 55 a0          	mov    -0x60(%rbp),%rdx
  413e06:	48 8d 45 c0          	lea    -0x40(%rbp),%rax
  413e0a:	48 89 d6             	mov    %rdx,%rsi
  413e0d:	48 89 c7             	mov    %rax,%rdi
  413e10:	e8 f5 a9 00 00       	callq  41e80a <_ZN2cv5Size_IiEC1ERKS1_>
  413e15:	4c 8d 45 d0          	lea    -0x30(%rbp),%r8
  413e19:	48 8d 4d c0          	lea    -0x40(%rbp),%rcx
  413e1d:	48 8b 55 a8          	mov    -0x58(%rbp),%rdx
  413e21:	48 8b 75 b0          	mov    -0x50(%rbp),%rsi
  413e25:	48 8b 45 b8          	mov    -0x48(%rbp),%rax
  413e29:	48 8d 7d e0          	lea    -0x20(%rbp),%rdi
  413e2d:	48 89 3c 24          	mov    %rdi,(%rsp)
  413e31:	41 89 d9             	mov    %ebx,%r9d
  413e34:	48 89 c7             	mov    %rax,%rdi
  413e37:	e8 a6 00 00 00       	callq  413ee2 <_ZN9HOGCache24initEPK14HOGDescriptor2RKN2cv3MatENS3_5Size_IiEES8_bS8_>
  413e3c:	e9 9a 00 00 00       	jmpq   413edb <_ZN9HOGCache2C1EPK14HOGDescriptor2RKN2cv3MatENS3_5Size_IiEES8_bS8_+0x1fd>
  413e41:	48 89 c3             	mov    %rax,%rbx
  413e44:	48 8b 45 b8          	mov    -0x48(%rbp),%rax
  413e48:	48 05 b0 01 00 00    	add    $0x1b0,%rax
  413e4e:	48 89 c7             	mov    %rax,%rdi
  413e51:	e8 72 90 00 00       	callq  41cec8 <_ZN2cv3MatD1Ev>
  413e56:	48 8b 45 b8          	mov    -0x48(%rbp),%rax
  413e5a:	48 05 50 01 00 00    	add    $0x150,%rax
  413e60:	48 89 c7             	mov    %rax,%rdi
  413e63:	e8 60 90 00 00       	callq  41cec8 <_ZN2cv3MatD1Ev>
  413e68:	48 8b 45 b8          	mov    -0x48(%rbp),%rax
  413e6c:	48 05 f0 00 00 00    	add    $0xf0,%rax
  413e72:	48 89 c7             	mov    %rax,%rdi
  413e75:	e8 90 9c 00 00       	callq  41db0a <_ZN2cv4Mat_IhED1Ev>
  413e7a:	eb 03                	jmp    413e7f <_ZN9HOGCache2C1EPK14HOGDescriptor2RKN2cv3MatENS3_5Size_IiEES8_bS8_+0x1a1>
  413e7c:	48 89 c3             	mov    %rax,%rbx
  413e7f:	48 8b 45 b8          	mov    -0x48(%rbp),%rax
  413e83:	48 05 90 00 00 00    	add    $0x90,%rax
  413e89:	48 89 c7             	mov    %rax,%rdi
  413e8c:	e8 59 9c 00 00       	callq  41daea <_ZN2cv4Mat_IfED1Ev>
  413e91:	eb 03                	jmp    413e96 <_ZN9HOGCache2C1EPK14HOGDescriptor2RKN2cv3MatENS3_5Size_IiEES8_bS8_+0x1b8>
  413e93:	48 89 c3             	mov    %rax,%rbx
  413e96:	48 8b 45 b8          	mov    -0x48(%rbp),%rax
  413e9a:	48 83 c0 40          	add    $0x40,%rax
  413e9e:	48 89 c7             	mov    %rax,%rdi
  413ea1:	e8 ce a8 00 00       	callq  41e774 <_ZNSt6vectorIiSaIiEED1Ev>
  413ea6:	eb 03                	jmp    413eab <_ZN9HOGCache2C1EPK14HOGDescriptor2RKN2cv3MatENS3_5Size_IiEES8_bS8_+0x1cd>
  413ea8:	48 89 c3             	mov    %rax,%rbx
  413eab:	48 8b 45 b8          	mov    -0x48(%rbp),%rax
  413eaf:	48 83 c0 20          	add    $0x20,%rax
  413eb3:	48 89 c7             	mov    %rax,%rdi
  413eb6:	e8 99 af 00 00       	callq  41ee54 <_ZNSt6vectorIN9HOGCache29BlockDataESaIS1_EED1Ev>
  413ebb:	eb 03                	jmp    413ec0 <_ZN9HOGCache2C1EPK14HOGDescriptor2RKN2cv3MatENS3_5Size_IiEES8_bS8_+0x1e2>
  413ebd:	48 89 c3             	mov    %rax,%rbx
  413ec0:	48 8b 45 b8          	mov    -0x48(%rbp),%rax
  413ec4:	48 83 c0 08          	add    $0x8,%rax
  413ec8:	48 89 c7             	mov    %rax,%rdi
  413ecb:	e8 1a af 00 00       	callq  41edea <_ZNSt6vectorIN9HOGCache27PixDataESaIS1_EED1Ev>
  413ed0:	48 89 d8             	mov    %rbx,%rax
  413ed3:	48 89 c7             	mov    %rax,%rdi
  413ed6:	e8 b5 c0 ff ff       	callq  40ff90 <_Unwind_Resume@plt>
  413edb:	48 83 c4 78          	add    $0x78,%rsp
  413edf:	5b                   	pop    %rbx
  413ee0:	5d                   	pop    %rbp
  413ee1:	c3                   	retq   

0000000000413ee2 <_ZN9HOGCache24initEPK14HOGDescriptor2RKN2cv3MatENS3_5Size_IiEES8_bS8_>:
  413ee2:	55                   	push   %rbp
  413ee3:	48 89 e5             	mov    %rsp,%rbp
  413ee6:	41 57                	push   %r15
  413ee8:	41 56                	push   %r14
  413eea:	41 55                	push   %r13
  413eec:	41 54                	push   %r12
  413eee:	53                   	push   %rbx
  413eef:	48 81 ec c8 12 00 00 	sub    $0x12c8,%rsp
  413ef6:	e8 05 c2 ff ff       	callq  410100 <mcount@plt>
  413efb:	48 89 bd 98 ed ff ff 	mov    %rdi,-0x1268(%rbp)
  413f02:	48 89 b5 90 ed ff ff 	mov    %rsi,-0x1270(%rbp)
  413f09:	48 89 95 88 ed ff ff 	mov    %rdx,-0x1278(%rbp)
  413f10:	48 89 8d 80 ed ff ff 	mov    %rcx,-0x1280(%rbp)
  413f17:	4c 89 85 78 ed ff ff 	mov    %r8,-0x1288(%rbp)
  413f1e:	44 89 c8             	mov    %r9d,%eax
  413f21:	88 85 74 ed ff ff    	mov    %al,-0x128c(%rbp)
  413f27:	48 8b 85 98 ed ff ff 	mov    -0x1268(%rbp),%rax
  413f2e:	48 8b 95 90 ed ff ff 	mov    -0x1270(%rbp),%rdx
  413f35:	48 89 90 10 02 00 00 	mov    %rdx,0x210(%rax)
  413f3c:	48 8b 85 98 ed ff ff 	mov    -0x1268(%rbp),%rax
  413f43:	48 83 c0 60          	add    $0x60,%rax
  413f47:	48 8b 75 10          	mov    0x10(%rbp),%rsi
  413f4b:	48 89 c7             	mov    %rax,%rdi
  413f4e:	e8 dd ab 00 00       	callq  41eb30 <_ZN2cv5Size_IiEaSERKS1_>
  413f53:	48 8b 85 98 ed ff ff 	mov    -0x1268(%rbp),%rax
  413f5a:	0f b6 95 74 ed ff ff 	movzbl -0x128c(%rbp),%edx
  413f61:	88 50 38             	mov    %dl,0x38(%rax)
  413f64:	48 8b 85 88 ed ff ff 	mov    -0x1278(%rbp),%rax
  413f6b:	48 89 c7             	mov    %rax,%rdi
  413f6e:	e8 cf 92 00 00       	callq  41d242 <_ZNK2cv3Mat4typeEv>
  413f73:	85 c0                	test   %eax,%eax
  413f75:	74 14                	je     413f8b <_ZN9HOGCache24initEPK14HOGDescriptor2RKN2cv3MatENS3_5Size_IiEES8_bS8_+0xa9>
  413f77:	48 8b 85 88 ed ff ff 	mov    -0x1278(%rbp),%rax
  413f7e:	48 89 c7             	mov    %rax,%rdi
  413f81:	e8 bc 92 00 00       	callq  41d242 <_ZNK2cv3Mat4typeEv>
  413f86:	83 f8 10             	cmp    $0x10,%eax
  413f89:	75 07                	jne    413f92 <_ZN9HOGCache24initEPK14HOGDescriptor2RKN2cv3MatENS3_5Size_IiEES8_bS8_+0xb0>
  413f8b:	b8 01 00 00 00       	mov    $0x1,%eax
  413f90:	eb 05                	jmp    413f97 <_ZN9HOGCache24initEPK14HOGDescriptor2RKN2cv3MatENS3_5Size_IiEES8_bS8_+0xb5>
  413f92:	b8 00 00 00 00       	mov    $0x0,%eax
  413f97:	84 c0                	test   %al,%al
  413f99:	0f 85 28 01 00 00    	jne    4140c7 <_ZN9HOGCache24initEPK14HOGDescriptor2RKN2cv3MatENS3_5Size_IiEES8_bS8_+0x1e5>
  413f9f:	48 8d 85 50 ee ff ff 	lea    -0x11b0(%rbp),%rax
  413fa6:	48 89 c7             	mov    %rax,%rdi
  413fa9:	e8 b2 c1 ff ff       	callq  410160 <_ZNSaIcEC1Ev@plt>
  413fae:	48 8d 95 50 ee ff ff 	lea    -0x11b0(%rbp),%rdx
  413fb5:	48 8d 85 30 ef ff ff 	lea    -0x10d0(%rbp),%rax
  413fbc:	be 19 9d 42 00       	mov    $0x429d19,%esi
  413fc1:	48 89 c7             	mov    %rax,%rdi
  413fc4:	e8 c7 c2 ff ff       	callq  410290 <_ZNSsC1EPKcRKSaIcE@plt>
  413fc9:	48 8d 85 40 ee ff ff 	lea    -0x11c0(%rbp),%rax
  413fd0:	48 89 c7             	mov    %rax,%rdi
  413fd3:	e8 88 c1 ff ff       	callq  410160 <_ZNSaIcEC1Ev@plt>
  413fd8:	48 8d 95 40 ee ff ff 	lea    -0x11c0(%rbp),%rdx
  413fdf:	48 8d 85 d0 ee ff ff 	lea    -0x1130(%rbp),%rax
  413fe6:	be 84 a4 42 00       	mov    $0x42a484,%esi
  413feb:	48 89 c7             	mov    %rax,%rdi
  413fee:	e8 9d c2 ff ff       	callq  410290 <_ZNSsC1EPKcRKSaIcE@plt>
  413ff3:	48 8d 85 30 ee ff ff 	lea    -0x11d0(%rbp),%rax
  413ffa:	48 89 c7             	mov    %rax,%rdi
  413ffd:	e8 5e c1 ff ff       	callq  410160 <_ZNSaIcEC1Ev@plt>
  414002:	48 8d 95 30 ee ff ff 	lea    -0x11d0(%rbp),%rdx
  414009:	48 8d 85 90 ee ff ff 	lea    -0x1170(%rbp),%rax
  414010:	be a8 9f 42 00       	mov    $0x429fa8,%esi
  414015:	48 89 c7             	mov    %rax,%rdi
  414018:	e8 73 c2 ff ff       	callq  410290 <_ZNSsC1EPKcRKSaIcE@plt>
  41401d:	48 8d b5 30 ef ff ff 	lea    -0x10d0(%rbp),%rsi
  414024:	48 8d 8d d0 ee ff ff 	lea    -0x1130(%rbp),%rcx
  41402b:	48 8d 95 90 ee ff ff 	lea    -0x1170(%rbp),%rdx
  414032:	48 8d 85 90 ef ff ff 	lea    -0x1070(%rbp),%rax
  414039:	41 b9 c0 02 00 00    	mov    $0x2c0,%r9d
  41403f:	49 89 f0             	mov    %rsi,%r8
  414042:	be 29 ff ff ff       	mov    $0xffffff29,%esi
  414047:	48 89 c7             	mov    %rax,%rdi
  41404a:	e8 a1 be ff ff       	callq  40fef0 <_ZN2cv9ExceptionC1EiRKSsS2_S2_i@plt>
  41404f:	48 8d 85 90 ef ff ff 	lea    -0x1070(%rbp),%rax
  414056:	48 89 c7             	mov    %rax,%rdi
  414059:	e8 02 bf ff ff       	callq  40ff60 <_ZN2cv5errorERKNS_9ExceptionE@plt>
  41405e:	48 8d 85 90 ef ff ff 	lea    -0x1070(%rbp),%rax
  414065:	48 89 c7             	mov    %rax,%rdi
  414068:	e8 c3 bf ff ff       	callq  410030 <_ZN2cv9ExceptionD1Ev@plt>
  41406d:	48 8d 85 90 ee ff ff 	lea    -0x1170(%rbp),%rax
  414074:	48 89 c7             	mov    %rax,%rdi
  414077:	e8 04 c2 ff ff       	callq  410280 <_ZNSsD1Ev@plt>
  41407c:	48 8d 85 30 ee ff ff 	lea    -0x11d0(%rbp),%rax
  414083:	48 89 c7             	mov    %rax,%rdi
  414086:	e8 25 c2 ff ff       	callq  4102b0 <_ZNSaIcED1Ev@plt>
  41408b:	48 8d 85 d0 ee ff ff 	lea    -0x1130(%rbp),%rax
  414092:	48 89 c7             	mov    %rax,%rdi
  414095:	e8 e6 c1 ff ff       	callq  410280 <_ZNSsD1Ev@plt>
  41409a:	48 8d 85 40 ee ff ff 	lea    -0x11c0(%rbp),%rax
  4140a1:	48 89 c7             	mov    %rax,%rdi
  4140a4:	e8 07 c2 ff ff       	callq  4102b0 <_ZNSaIcED1Ev@plt>
  4140a9:	48 8d 85 30 ef ff ff 	lea    -0x10d0(%rbp),%rax
  4140b0:	48 89 c7             	mov    %rax,%rdi
  4140b3:	e8 c8 c1 ff ff       	callq  410280 <_ZNSsD1Ev@plt>
  4140b8:	48 8d 85 50 ee ff ff 	lea    -0x11b0(%rbp),%rax
  4140bf:	48 89 c7             	mov    %rax,%rdi
  4140c2:	e8 e9 c1 ff ff       	callq  4102b0 <_ZNSaIcED1Ev@plt>
  4140c7:	48 8b 85 88 ed ff ff 	mov    -0x1278(%rbp),%rax
  4140ce:	8b 50 08             	mov    0x8(%rax),%edx
  4140d1:	48 8b 85 80 ed ff ff 	mov    -0x1280(%rbp),%rax
  4140d8:	8b 40 04             	mov    0x4(%rax),%eax
  4140db:	01 c2                	add    %eax,%edx
  4140dd:	48 8b 85 78 ed ff ff 	mov    -0x1288(%rbp),%rax
  4140e4:	8b 40 04             	mov    0x4(%rax),%eax
  4140e7:	01 c2                	add    %eax,%edx
  4140e9:	48 8b 85 88 ed ff ff 	mov    -0x1278(%rbp),%rax
  4140f0:	8b 48 0c             	mov    0xc(%rax),%ecx
  4140f3:	48 8b 85 80 ed ff ff 	mov    -0x1280(%rbp),%rax
  4140fa:	8b 00                	mov    (%rax),%eax
  4140fc:	01 c1                	add    %eax,%ecx
  4140fe:	48 8b 85 78 ed ff ff 	mov    -0x1288(%rbp),%rax
  414105:	8b 00                	mov    (%rax),%eax
  414107:	01 c1                	add    %eax,%ecx
  414109:	48 8d 85 f0 ed ff ff 	lea    -0x1210(%rbp),%rax
  414110:	89 ce                	mov    %ecx,%esi
  414112:	48 89 c7             	mov    %rax,%rdi
  414115:	e8 c4 a6 00 00       	callq  41e7de <_ZN2cv5Size_IiEC1Eii>
  41411a:	48 8d 95 f0 ed ff ff 	lea    -0x1210(%rbp),%rdx
  414121:	48 8d 85 90 ef ff ff 	lea    -0x1070(%rbp),%rax
  414128:	48 89 d6             	mov    %rdx,%rsi
  41412b:	48 89 c7             	mov    %rax,%rdi
  41412e:	e8 d7 a6 00 00       	callq  41e80a <_ZN2cv5Size_IiEC1ERKS1_>
  414133:	48 8b 85 98 ed ff ff 	mov    -0x1268(%rbp),%rax
  41413a:	48 8d 88 50 01 00 00 	lea    0x150(%rax),%rcx
  414141:	48 8d 85 90 ef ff ff 	lea    -0x1070(%rbp),%rax
  414148:	ba 0d 00 00 00       	mov    $0xd,%edx
  41414d:	48 89 c6             	mov    %rax,%rsi
  414150:	48 89 cf             	mov    %rcx,%rdi
  414153:	e8 d4 8f 00 00       	callq  41d12c <_ZN2cv3Mat6createENS_5Size_IiEEi>
  414158:	48 8d 95 f0 ed ff ff 	lea    -0x1210(%rbp),%rdx
  41415f:	48 8d 85 90 ef ff ff 	lea    -0x1070(%rbp),%rax
  414166:	48 89 d6             	mov    %rdx,%rsi
  414169:	48 89 c7             	mov    %rax,%rdi
  41416c:	e8 99 a6 00 00       	callq  41e80a <_ZN2cv5Size_IiEC1ERKS1_>
  414171:	48 8b 85 98 ed ff ff 	mov    -0x1268(%rbp),%rax
  414178:	48 8d 88 b0 01 00 00 	lea    0x1b0(%rax),%rcx
  41417f:	48 8d 85 90 ef ff ff 	lea    -0x1070(%rbp),%rax
  414186:	ba 08 00 00 00       	mov    $0x8,%edx
  41418b:	48 89 c6             	mov    %rax,%rsi
  41418e:	48 89 cf             	mov    %rcx,%rdi
  414191:	e8 96 8f 00 00       	callq  41d12c <_ZN2cv3Mat6createENS_5Size_IiEEi>
  414196:	48 8b 85 88 ed ff ff 	mov    -0x1278(%rbp),%rax
  41419d:	48 89 c7             	mov    %rax,%rdi
  4141a0:	e8 d7 90 00 00       	callq  41d27c <_ZNK2cv3Mat8channelsEv>
  4141a5:	89 85 cc ed ff ff    	mov    %eax,-0x1234(%rbp)
  4141ab:	48 8d 85 00 ee ff ff 	lea    -0x1200(%rbp),%rax
  4141b2:	48 89 c7             	mov    %rax,%rdi
  4141b5:	e8 82 a6 00 00       	callq  41e83c <_ZN2cv5Size_IiEC1Ev>
  4141ba:	48 8d 85 10 ee ff ff 	lea    -0x11f0(%rbp),%rax
  4141c1:	48 89 c7             	mov    %rax,%rdi
  4141c4:	e8 a3 a4 00 00       	callq  41e66c <_ZN2cv6Point_IiEC1Ev>
  4141c9:	48 8d 95 10 ee ff ff 	lea    -0x11f0(%rbp),%rdx
  4141d0:	48 8d 8d 00 ee ff ff 	lea    -0x1200(%rbp),%rcx
  4141d7:	48 8b 85 88 ed ff ff 	mov    -0x1278(%rbp),%rax
  4141de:	48 89 ce             	mov    %rcx,%rsi
  4141e1:	48 89 c7             	mov    %rax,%rdi
  4141e4:	e8 e7 be ff ff       	callq  4100d0 <_ZNK2cv3Mat9locateROIERNS_5Size_IiEERNS_6Point_IiEE@plt>
  4141e9:	48 8d 85 d0 ee ff ff 	lea    -0x1130(%rbp),%rax
  4141f0:	ba 00 01 00 00       	mov    $0x100,%edx
  4141f5:	be 01 00 00 00       	mov    $0x1,%esi
  4141fa:	48 89 c7             	mov    %rax,%rdi
  4141fd:	e8 64 ad 00 00       	callq  41ef66 <_ZN2cv4Mat_IfEC1Eii>
  414202:	48 8d 85 d0 ee ff ff 	lea    -0x1130(%rbp),%rax
  414209:	ba 00 00 00 00       	mov    $0x0,%edx
  41420e:	be 00 00 00 00       	mov    $0x0,%esi
  414213:	48 89 c7             	mov    %rax,%rdi
  414216:	e8 7b ad 00 00       	callq  41ef96 <_ZN2cv4Mat_IfEclEii>
  41421b:	48 89 85 70 ee ff ff 	mov    %rax,-0x1190(%rbp)
  414222:	48 8b 85 98 ed ff ff 	mov    -0x1268(%rbp),%rax
  414229:	48 8b 80 10 02 00 00 	mov    0x210(%rax),%rax
  414230:	0f b6 40 48          	movzbl 0x48(%rax),%eax
  414234:	84 c0                	test   %al,%al
  414236:	74 5b                	je     414293 <_ZN9HOGCache24initEPK14HOGDescriptor2RKN2cv3MatENS3_5Size_IiEES8_bS8_+0x3b1>
  414238:	c7 85 ac ed ff ff 00 	movl   $0x0,-0x1254(%rbp)
  41423f:	00 00 00 
  414242:	eb 41                	jmp    414285 <_ZN9HOGCache24initEPK14HOGDescriptor2RKN2cv3MatENS3_5Size_IiEES8_bS8_+0x3a3>
  414244:	8b 95 ac ed ff ff    	mov    -0x1254(%rbp),%edx
  41424a:	48 8d 85 d0 ee ff ff 	lea    -0x1130(%rbp),%rax
  414251:	be 00 00 00 00       	mov    $0x0,%esi
  414256:	48 89 c7             	mov    %rax,%rdi
  414259:	e8 38 ad 00 00       	callq  41ef96 <_ZN2cv4Mat_IfEclEii>
  41425e:	48 89 c3             	mov    %rax,%rbx
  414261:	f3 0f 2a 85 ac ed ff 	cvtsi2ssl -0x1254(%rbp),%xmm0
  414268:	ff 
  414269:	e8 15 83 00 00       	callq  41c583 <_ZSt4sqrtf>
  41426e:	f3 0f 11 85 70 ed ff 	movss  %xmm0,-0x1290(%rbp)
  414275:	ff 
  414276:	8b 85 70 ed ff ff    	mov    -0x1290(%rbp),%eax
  41427c:	89 03                	mov    %eax,(%rbx)
  41427e:	83 85 ac ed ff ff 01 	addl   $0x1,-0x1254(%rbp)
  414285:	81 bd ac ed ff ff ff 	cmpl   $0xff,-0x1254(%rbp)
  41428c:	00 00 00 
  41428f:	7e b3                	jle    414244 <_ZN9HOGCache24initEPK14HOGDescriptor2RKN2cv3MatENS3_5Size_IiEES8_bS8_+0x362>
  414291:	eb 45                	jmp    4142d8 <_ZN9HOGCache24initEPK14HOGDescriptor2RKN2cv3MatENS3_5Size_IiEES8_bS8_+0x3f6>
  414293:	c7 85 b0 ed ff ff 00 	movl   $0x0,-0x1250(%rbp)
  41429a:	00 00 00 
  41429d:	eb 2d                	jmp    4142cc <_ZN9HOGCache24initEPK14HOGDescriptor2RKN2cv3MatENS3_5Size_IiEES8_bS8_+0x3ea>
  41429f:	8b 95 b0 ed ff ff    	mov    -0x1250(%rbp),%edx
  4142a5:	48 8d 85 d0 ee ff ff 	lea    -0x1130(%rbp),%rax
  4142ac:	be 00 00 00 00       	mov    $0x0,%esi
  4142b1:	48 89 c7             	mov    %rax,%rdi
  4142b4:	e8 dd ac 00 00       	callq  41ef96 <_ZN2cv4Mat_IfEclEii>
  4142b9:	f3 0f 2a 85 b0 ed ff 	cvtsi2ssl -0x1250(%rbp),%xmm0
  4142c0:	ff 
  4142c1:	f3 0f 11 00          	movss  %xmm0,(%rax)
  4142c5:	83 85 b0 ed ff ff 01 	addl   $0x1,-0x1250(%rbp)
  4142cc:	81 bd b0 ed ff ff ff 	cmpl   $0xff,-0x1250(%rbp)
  4142d3:	00 00 00 
  4142d6:	7e c7                	jle    41429f <_ZN9HOGCache24initEPK14HOGDescriptor2RKN2cv3MatENS3_5Size_IiEES8_bS8_+0x3bd>
  4142d8:	8b 95 f0 ed ff ff    	mov    -0x1210(%rbp),%edx
  4142de:	8b 85 f4 ed ff ff    	mov    -0x120c(%rbp),%eax
  4142e4:	01 d0                	add    %edx,%eax
  4142e6:	83 c0 04             	add    $0x4,%eax
  4142e9:	48 63 d0             	movslq %eax,%rdx
  4142ec:	48 8d 85 90 ef ff ff 	lea    -0x1070(%rbp),%rax
  4142f3:	48 89 d6             	mov    %rdx,%rsi
  4142f6:	48 89 c7             	mov    %rax,%rdi
  4142f9:	e8 de ac 00 00       	callq  41efdc <_ZN2cv10AutoBufferIiLm1032EEC1Em>
  4142fe:	48 8d 85 90 ef ff ff 	lea    -0x1070(%rbp),%rax
  414305:	48 89 c7             	mov    %rax,%rdi
  414308:	e8 35 ad 00 00       	callq  41f042 <_ZN2cv10AutoBufferIiLm1032EEcvPiEv>
  41430d:	48 83 c0 04          	add    $0x4,%rax
  414311:	48 89 85 78 ee ff ff 	mov    %rax,-0x1188(%rbp)
  414318:	48 8b 85 98 ed ff ff 	mov    -0x1268(%rbp),%rax
  41431f:	48 8b 80 10 02 00 00 	mov    0x210(%rax),%rax
  414326:	48 8b 00             	mov    (%rax),%rax
  414329:	48 83 c0 68          	add    $0x68,%rax
  41432d:	4c 8b 10             	mov    (%rax),%r10
  414330:	44 8b ad 14 ee ff ff 	mov    -0x11ec(%rbp),%r13d
  414337:	44 8b a5 10 ee ff ff 	mov    -0x11f0(%rbp),%r12d
  41433e:	8b 9d 04 ee ff ff    	mov    -0x11fc(%rbp),%ebx
  414344:	44 8b 9d 00 ee ff ff 	mov    -0x1200(%rbp),%r11d
  41434b:	44 8b 8d f4 ed ff ff 	mov    -0x120c(%rbp),%r9d
  414352:	44 8b 85 f0 ed ff ff 	mov    -0x1210(%rbp),%r8d
  414359:	48 8b 85 78 ed ff ff 	mov    -0x1288(%rbp),%rax
  414360:	8b 48 04             	mov    0x4(%rax),%ecx
  414363:	48 8b 85 78 ed ff ff 	mov    -0x1288(%rbp),%rax
  41436a:	8b 10                	mov    (%rax),%edx
  41436c:	48 8b 85 80 ed ff ff 	mov    -0x1280(%rbp),%rax
  414373:	8b 40 04             	mov    0x4(%rax),%eax
  414376:	89 85 70 ed ff ff    	mov    %eax,-0x1290(%rbp)
  41437c:	48 8b 85 80 ed ff ff 	mov    -0x1280(%rbp),%rax
  414383:	8b 30                	mov    (%rax),%esi
  414385:	89 b5 6c ed ff ff    	mov    %esi,-0x1294(%rbp)
  41438b:	48 8b 85 98 ed ff ff 	mov    -0x1268(%rbp),%rax
  414392:	4c 8d b8 b0 01 00 00 	lea    0x1b0(%rax),%r15
  414399:	48 8b 85 98 ed ff ff 	mov    -0x1268(%rbp),%rax
  4143a0:	4c 8d b0 50 01 00 00 	lea    0x150(%rax),%r14
  4143a7:	48 8b 85 98 ed ff ff 	mov    -0x1268(%rbp),%rax
  4143ae:	48 8b b8 10 02 00 00 	mov    0x210(%rax),%rdi
  4143b5:	48 8b b5 88 ed ff ff 	mov    -0x1278(%rbp),%rsi
  4143bc:	48 8b 85 78 ee ff ff 	mov    -0x1188(%rbp),%rax
  4143c3:	48 89 44 24 50       	mov    %rax,0x50(%rsp)
  4143c8:	48 8b 85 70 ee ff ff 	mov    -0x1190(%rbp),%rax
  4143cf:	48 89 44 24 48       	mov    %rax,0x48(%rsp)
  4143d4:	44 89 6c 24 40       	mov    %r13d,0x40(%rsp)
  4143d9:	44 89 64 24 38       	mov    %r12d,0x38(%rsp)
  4143de:	89 5c 24 30          	mov    %ebx,0x30(%rsp)
  4143e2:	44 89 5c 24 28       	mov    %r11d,0x28(%rsp)
  4143e7:	8b 85 cc ed ff ff    	mov    -0x1234(%rbp),%eax
  4143ed:	89 44 24 20          	mov    %eax,0x20(%rsp)
  4143f1:	44 89 4c 24 18       	mov    %r9d,0x18(%rsp)
  4143f6:	44 89 44 24 10       	mov    %r8d,0x10(%rsp)
  4143fb:	89 4c 24 08          	mov    %ecx,0x8(%rsp)
  4143ff:	89 14 24             	mov    %edx,(%rsp)
  414402:	44 8b 8d 70 ed ff ff 	mov    -0x1290(%rbp),%r9d
  414409:	44 8b 85 6c ed ff ff 	mov    -0x1294(%rbp),%r8d
  414410:	4c 89 f9             	mov    %r15,%rcx
  414413:	4c 89 f2             	mov    %r14,%rdx
  414416:	41 ff d2             	callq  *%r10
  414419:	48 8b 95 80 ed ff ff 	mov    -0x1280(%rbp),%rdx
  414420:	48 8d 85 30 ef ff ff 	lea    -0x10d0(%rbp),%rax
  414427:	48 89 d6             	mov    %rdx,%rsi
  41442a:	48 89 c7             	mov    %rax,%rdi
  41442d:	e8 2a ac 00 00       	callq  41f05c <_ZN2cv6Point_IiEC1ERKNS_5Size_IiEE>
  414432:	48 8b 85 98 ed ff ff 	mov    -0x1268(%rbp),%rax
  414439:	48 8d 90 88 00 00 00 	lea    0x88(%rax),%rdx
  414440:	48 8d 85 30 ef ff ff 	lea    -0x10d0(%rbp),%rax
  414447:	48 89 c6             	mov    %rax,%rsi
  41444a:	48 89 d7             	mov    %rdx,%rdi
  41444d:	e8 3c ac 00 00       	callq  41f08e <_ZN2cv6Point_IiEaSERKS1_>
  414452:	48 8b 85 98 ed ff ff 	mov    -0x1268(%rbp),%rax
  414459:	48 8b 80 10 02 00 00 	mov    0x210(%rax),%rax
  414460:	48 8d 50 08          	lea    0x8(%rax),%rdx
  414464:	48 8b 85 98 ed ff ff 	mov    -0x1268(%rbp),%rax
  41446b:	48 83 c0 58          	add    $0x58,%rax
  41446f:	48 89 d6             	mov    %rdx,%rsi
  414472:	48 89 c7             	mov    %rax,%rdi
  414475:	e8 b6 a6 00 00       	callq  41eb30 <_ZN2cv5Size_IiEaSERKS1_>
  41447a:	48 8b 85 98 ed ff ff 	mov    -0x1268(%rbp),%rax
  414481:	48 8b 80 10 02 00 00 	mov    0x210(%rax),%rax
  414488:	48 8d 50 10          	lea    0x10(%rax),%rdx
  41448c:	48 8d 85 20 ee ff ff 	lea    -0x11e0(%rbp),%rax
  414493:	48 89 d6             	mov    %rdx,%rsi
  414496:	48 89 c7             	mov    %rax,%rdi
  414499:	e8 6c a3 00 00       	callq  41e80a <_ZN2cv5Size_IiEC1ERKS1_>
  41449e:	48 8b 85 98 ed ff ff 	mov    -0x1268(%rbp),%rax
  4144a5:	48 8b 80 10 02 00 00 	mov    0x210(%rax),%rax
  4144ac:	48 8d 50 18          	lea    0x18(%rax),%rdx
  4144b0:	48 8d 85 30 ee ff ff 	lea    -0x11d0(%rbp),%rax
  4144b7:	48 89 d6             	mov    %rdx,%rsi
  4144ba:	48 89 c7             	mov    %rax,%rdi
  4144bd:	e8 48 a3 00 00       	callq  41e80a <_ZN2cv5Size_IiEC1ERKS1_>
  4144c2:	48 8b 85 98 ed ff ff 	mov    -0x1268(%rbp),%rax
  4144c9:	48 8b 80 10 02 00 00 	mov    0x210(%rax),%rax
  4144d0:	48 8d 50 20          	lea    0x20(%rax),%rdx
  4144d4:	48 8d 85 40 ee ff ff 	lea    -0x11c0(%rbp),%rax
  4144db:	48 89 d6             	mov    %rdx,%rsi
  4144de:	48 89 c7             	mov    %rax,%rdi
  4144e1:	e8 24 a3 00 00       	callq  41e80a <_ZN2cv5Size_IiEC1ERKS1_>
  4144e6:	48 8b 85 98 ed ff ff 	mov    -0x1268(%rbp),%rax
  4144ed:	48 8b 80 10 02 00 00 	mov    0x210(%rax),%rax
  4144f4:	8b 40 28             	mov    0x28(%rax),%eax
  4144f7:	89 85 d0 ed ff ff    	mov    %eax,-0x1230(%rbp)
  4144fd:	8b 95 20 ee ff ff    	mov    -0x11e0(%rbp),%edx
  414503:	8b 85 24 ee ff ff    	mov    -0x11dc(%rbp),%eax
  414509:	0f af c2             	imul   %edx,%eax
  41450c:	89 85 d4 ed ff ff    	mov    %eax,-0x122c(%rbp)
  414512:	48 8b 85 98 ed ff ff 	mov    -0x1268(%rbp),%rax
